SF:/Users/gugfug/Projects/project_apex/apex/src/lib.rs
FN:130,_RINvMs2_Cs7Sk67G8VMzx_4apexINtB6_12LoaderResultpE12server_errorpEB6_
FN:140,_RINvMs2_Cs7Sk67G8VMzx_4apexINtB6_12LoaderResultpE13into_responsepEB6_
FN:120,_RINvMs2_Cs7Sk67G8VMzx_4apexINtB6_12LoaderResultpE8redirectpEB6_
FN:185,_RINvMs3_Cs7Sk67G8VMzx_4apexNtB6_5Route3newpEB6_
FN:208,_RINvMs4_Cs7Sk67G8VMzx_4apexNtB6_10ApexRouter3getpppEB6_
FN:238,_RINvMs4_Cs7Sk67G8VMzx_4apexNtB6_10ApexRouter3putpppEB6_
FN:223,_RINvMs4_Cs7Sk67G8VMzx_4apexNtB6_10ApexRouter4postpppEB6_
FN:268,_RINvMs4_Cs7Sk67G8VMzx_4apexNtB6_10ApexRouter5routepppEB6_
FN:253,_RINvMs4_Cs7Sk67G8VMzx_4apexNtB6_10ApexRouter6deletepppEB6_
FN:331,_RINvMs7_Cs7Sk67G8VMzx_4apexINtB6_4ApexpE7contextpEB6_
FN:214,_RNCINvMs4_Cs7Sk67G8VMzx_4apexNtB8_10ApexRouter3getpppE0B8_
FN:244,_RNCINvMs4_Cs7Sk67G8VMzx_4apexNtB8_10ApexRouter3putpppE0B8_
FN:229,_RNCINvMs4_Cs7Sk67G8VMzx_4apexNtB8_10ApexRouter4postpppE0B8_
FN:274,_RNCINvMs4_Cs7Sk67G8VMzx_4apexNtB8_10ApexRouter5routepppE0B8_
FN:259,_RNCINvMs4_Cs7Sk67G8VMzx_4apexNtB8_10ApexRouter6deletepppE0B8_
FN:384,_RNCNCNCNCNvMs7_Cs7Sk67G8VMzx_4apexINtBd_4ApexpE5serve0000Bd_
FN:382,_RNCNCNCNvMs7_Cs7Sk67G8VMzx_4apexINtBb_4ApexpE5serve000Bb_
FN:381,_RNCNCNvMs7_Cs7Sk67G8VMzx_4apexINtB9_4ApexpE5serve00B9_
FN:283,_RNCNvMs4_Cs7Sk67G8VMzx_4apexNtB7_10ApexRouter6handle0B7_
FN:355,_RNCNvMs7_Cs7Sk67G8VMzx_4apexINtB7_4ApexpE14handle_request0B7_
FN:369,_RNCNvMs7_Cs7Sk67G8VMzx_4apexINtB7_4ApexpE5serve0B7_
FN:115,_RNvMs2_Cs7Sk67G8VMzx_4apexINtB5_12LoaderResultpE2okB5_
FN:135,_RNvMs2_Cs7Sk67G8VMzx_4apexINtB5_12LoaderResultpE8responseB5_
FN:125,_RNvMs2_Cs7Sk67G8VMzx_4apexINtB5_12LoaderResultpE9not_foundB5_
FN:350,_RNvMs7_Cs7Sk67G8VMzx_4apexINtB5_4ApexpE10get_routerB5_
FN:345,_RNvMs7_Cs7Sk67G8VMzx_4apexINtB5_4ApexpE11get_contextB5_
FN:355,_RNvMs7_Cs7Sk67G8VMzx_4apexINtB5_4ApexpE14handle_requestB5_
FN:366,_RNvMs7_Cs7Sk67G8VMzx_4apexINtB5_4ApexpE5serveB5_
FN:339,_RNvMs7_Cs7Sk67G8VMzx_4apexINtB5_4ApexpE6routerB5_
FN:49,_RNvMCs7Sk67G8VMzx_4apexNtB2_4Html11into_string
FN:42,_RNvMCs7Sk67G8VMzx_4apexNtB2_4Html5empty
FN:54,_RNvMCs7Sk67G8VMzx_4apexNtB2_4Html6as_str
FN:201,_RNvMs4_Cs7Sk67G8VMzx_4apexNtB5_10ApexRouter3new
FN:283,_RNvMs4_Cs7Sk67G8VMzx_4apexNtB5_10ApexRouter6handle
FN:299,_RNvMs4_Cs7Sk67G8VMzx_4apexNtB5_10ApexRouter6routes
FN:318,_RNvMs6_Cs7Sk67G8VMzx_4apexNtB5_4Apex3new
FN:66,_RNvXs0_Cs7Sk67G8VMzx_4apexNtB5_4HtmlINtNtCslNfmTnNkGed_4core7convert4FromReE4from
FN:72,_RNvXs1_Cs7Sk67G8VMzx_4apexNtB5_4HtmlNtNtCslNfmTnNkGed_4core3fmt7Display3fmt
FN:305,_RNvXs5_Cs7Sk67G8VMzx_4apexNtB5_10ApexRouterNtNtCslNfmTnNkGed_4core7default7Default7default
FN:402,_RNvXs8_Cs7Sk67G8VMzx_4apexNtB5_4ApexNtNtCslNfmTnNkGed_4core7default7Default7default
FN:60,_RNvXs_Cs7Sk67G8VMzx_4apexNtB4_4HtmlINtNtCslNfmTnNkGed_4core7convert4FromNtNtCsdEVMfzfmdlp_5alloc6string6StringE4from
FN:35,_RINvMCs7Sk67G8VMzx_4apexNtB3_4Html3newNtNtCsdEVMfzfmdlp_5alloc6string6StringEB3_
FN:35,_RINvMCs7Sk67G8VMzx_4apexNtB3_4Html3newReEB3_
FNDA:0,_RINvMs2_Cs7Sk67G8VMzx_4apexINtB6_12LoaderResultpE12server_errorpEB6_
FNDA:0,_RINvMs2_Cs7Sk67G8VMzx_4apexINtB6_12LoaderResultpE13into_responsepEB6_
FNDA:0,_RINvMs2_Cs7Sk67G8VMzx_4apexINtB6_12LoaderResultpE8redirectpEB6_
FNDA:0,_RINvMs3_Cs7Sk67G8VMzx_4apexNtB6_5Route3newpEB6_
FNDA:0,_RINvMs4_Cs7Sk67G8VMzx_4apexNtB6_10ApexRouter3getpppEB6_
FNDA:0,_RINvMs4_Cs7Sk67G8VMzx_4apexNtB6_10ApexRouter3putpppEB6_
FNDA:0,_RINvMs4_Cs7Sk67G8VMzx_4apexNtB6_10ApexRouter4postpppEB6_
FNDA:0,_RINvMs4_Cs7Sk67G8VMzx_4apexNtB6_10ApexRouter5routepppEB6_
FNDA:0,_RINvMs4_Cs7Sk67G8VMzx_4apexNtB6_10ApexRouter6deletepppEB6_
FNDA:0,_RINvMs7_Cs7Sk67G8VMzx_4apexINtB6_4ApexpE7contextpEB6_
FNDA:0,_RNCINvMs4_Cs7Sk67G8VMzx_4apexNtB8_10ApexRouter3getpppE0B8_
FNDA:0,_RNCINvMs4_Cs7Sk67G8VMzx_4apexNtB8_10ApexRouter3putpppE0B8_
FNDA:0,_RNCINvMs4_Cs7Sk67G8VMzx_4apexNtB8_10ApexRouter4postpppE0B8_
FNDA:0,_RNCINvMs4_Cs7Sk67G8VMzx_4apexNtB8_10ApexRouter5routepppE0B8_
FNDA:0,_RNCINvMs4_Cs7Sk67G8VMzx_4apexNtB8_10ApexRouter6deletepppE0B8_
FNDA:0,_RNCNCNCNCNvMs7_Cs7Sk67G8VMzx_4apexINtBd_4ApexpE5serve0000Bd_
FNDA:0,_RNCNCNCNvMs7_Cs7Sk67G8VMzx_4apexINtBb_4ApexpE5serve000Bb_
FNDA:0,_RNCNCNvMs7_Cs7Sk67G8VMzx_4apexINtB9_4ApexpE5serve00B9_
FNDA:0,_RNCNvMs4_Cs7Sk67G8VMzx_4apexNtB7_10ApexRouter6handle0B7_
FNDA:0,_RNCNvMs7_Cs7Sk67G8VMzx_4apexINtB7_4ApexpE14handle_request0B7_
FNDA:0,_RNCNvMs7_Cs7Sk67G8VMzx_4apexINtB7_4ApexpE5serve0B7_
FNDA:0,_RNvMs2_Cs7Sk67G8VMzx_4apexINtB5_12LoaderResultpE2okB5_
FNDA:0,_RNvMs2_Cs7Sk67G8VMzx_4apexINtB5_12LoaderResultpE8responseB5_
FNDA:0,_RNvMs2_Cs7Sk67G8VMzx_4apexINtB5_12LoaderResultpE9not_foundB5_
FNDA:0,_RNvMs7_Cs7Sk67G8VMzx_4apexINtB5_4ApexpE10get_routerB5_
FNDA:0,_RNvMs7_Cs7Sk67G8VMzx_4apexINtB5_4ApexpE11get_contextB5_
FNDA:0,_RNvMs7_Cs7Sk67G8VMzx_4apexINtB5_4ApexpE14handle_requestB5_
FNDA:0,_RNvMs7_Cs7Sk67G8VMzx_4apexINtB5_4ApexpE5serveB5_
FNDA:0,_RNvMs7_Cs7Sk67G8VMzx_4apexINtB5_4ApexpE6routerB5_
FNDA:0,_RNvMCs7Sk67G8VMzx_4apexNtB2_4Html11into_string
FNDA:0,_RNvMCs7Sk67G8VMzx_4apexNtB2_4Html5empty
FNDA:0,_RNvMCs7Sk67G8VMzx_4apexNtB2_4Html6as_str
FNDA:0,_RNvMs4_Cs7Sk67G8VMzx_4apexNtB5_10ApexRouter3new
FNDA:0,_RNvMs4_Cs7Sk67G8VMzx_4apexNtB5_10ApexRouter6handle
FNDA:0,_RNvMs4_Cs7Sk67G8VMzx_4apexNtB5_10ApexRouter6routes
FNDA:0,_RNvMs6_Cs7Sk67G8VMzx_4apexNtB5_4Apex3new
FNDA:0,_RNvXs0_Cs7Sk67G8VMzx_4apexNtB5_4HtmlINtNtCslNfmTnNkGed_4core7convert4FromReE4from
FNDA:11,_RNvXs1_Cs7Sk67G8VMzx_4apexNtB5_4HtmlNtNtCslNfmTnNkGed_4core3fmt7Display3fmt
FNDA:0,_RNvXs5_Cs7Sk67G8VMzx_4apexNtB5_10ApexRouterNtNtCslNfmTnNkGed_4core7default7Default7default
FNDA:0,_RNvXs8_Cs7Sk67G8VMzx_4apexNtB5_4ApexNtNtCslNfmTnNkGed_4core7default7Default7default
FNDA:0,_RNvXs_Cs7Sk67G8VMzx_4apexNtB4_4HtmlINtNtCslNfmTnNkGed_4core7convert4FromNtNtCsdEVMfzfmdlp_5alloc6string6StringE4from
FNDA:11,_RINvMCs7Sk67G8VMzx_4apexNtB3_4Html3newNtNtCsdEVMfzfmdlp_5alloc6string6StringEB3_
FNDA:0,_RINvMCs7Sk67G8VMzx_4apexNtB3_4Html3newReEB3_
FNF:42
FNH:2
DA:35,11
DA:36,11
DA:37,11
DA:38,11
DA:39,11
DA:42,0
DA:43,0
DA:44,0
DA:45,0
DA:46,0
DA:49,0
DA:50,0
DA:51,0
DA:54,0
DA:55,0
DA:56,0
DA:60,0
DA:61,0
DA:62,0
DA:66,0
DA:67,0
DA:68,0
DA:72,11
DA:73,11
DA:74,11
DA:115,0
DA:116,0
DA:117,0
DA:120,0
DA:121,0
DA:122,0
DA:125,0
DA:126,0
DA:127,0
DA:130,0
DA:131,0
DA:132,0
DA:135,0
DA:136,0
DA:137,0
DA:140,0
DA:141,0
DA:142,0
DA:143,0
DA:144,0
DA:145,0
DA:146,0
DA:147,0
DA:148,0
DA:149,0
DA:150,0
DA:151,0
DA:153,0
DA:154,0
DA:155,0
DA:156,0
DA:157,0
DA:158,0
DA:159,0
DA:160,0
DA:161,0
DA:162,0
DA:163,0
DA:164,0
DA:165,0
DA:166,0
DA:167,0
DA:168,0
DA:169,0
DA:170,0
DA:171,0
DA:173,0
DA:185,0
DA:186,0
DA:187,0
DA:188,0
DA:189,0
DA:190,0
DA:201,0
DA:202,0
DA:203,0
DA:204,0
DA:205,0
DA:208,0
DA:209,0
DA:210,0
DA:211,0
DA:212,0
DA:213,0
DA:214,0
DA:215,0
DA:216,0
DA:217,0
DA:218,0
DA:219,0
DA:220,0
DA:223,0
DA:224,0
DA:225,0
DA:226,0
DA:227,0
DA:228,0
DA:229,0
DA:230,0
DA:231,0
DA:232,0
DA:233,0
DA:234,0
DA:235,0
DA:238,0
DA:239,0
DA:240,0
DA:241,0
DA:242,0
DA:243,0
DA:244,0
DA:245,0
DA:246,0
DA:247,0
DA:248,0
DA:249,0
DA:250,0
DA:253,0
DA:254,0
DA:255,0
DA:256,0
DA:257,0
DA:258,0
DA:259,0
DA:260,0
DA:261,0
DA:262,0
DA:263,0
DA:264,0
DA:265,0
DA:268,0
DA:269,0
DA:270,0
DA:271,0
DA:272,0
DA:273,0
DA:274,0
DA:275,0
DA:276,0
DA:277,0
DA:278,0
DA:279,0
DA:280,0
DA:283,0
DA:284,0
DA:285,0
DA:286,0
DA:287,0
DA:290,0
DA:291,0
DA:292,0
DA:293,0
DA:296,0
DA:299,0
DA:300,0
DA:301,0
DA:305,0
DA:306,0
DA:307,0
DA:318,0
DA:319,0
DA:320,0
DA:321,0
DA:322,0
DA:323,0
DA:331,0
DA:332,0
DA:333,0
DA:334,0
DA:335,0
DA:336,0
DA:339,0
DA:340,0
DA:341,0
DA:342,0
DA:345,0
DA:346,0
DA:347,0
DA:350,0
DA:351,0
DA:352,0
DA:355,0
DA:356,0
DA:357,0
DA:358,0
DA:359,0
DA:360,0
DA:361,0
DA:363,0
DA:366,0
DA:367,0
DA:368,0
DA:369,0
DA:370,0
DA:371,0
DA:372,0
DA:373,0
DA:374,0
DA:377,0
DA:378,0
DA:379,0
DA:380,0
DA:381,0
DA:382,0
DA:383,0
DA:384,0
DA:385,0
DA:386,0
DA:387,0
DA:388,0
DA:389,0
DA:390,0
DA:391,0
DA:393,0
DA:394,0
DA:395,0
DA:396,0
DA:398,0
DA:402,0
DA:403,0
DA:404,0
BRF:0
BRH:0
LF:243
LH:8
end_of_record
SF:/Users/gugfug/Projects/project_apex/apex_macro/src/component.rs
FN:164,_RNCNvNtCsiDy2U3NWibf_10apex_macro9component18generate_component0B5_
FN:168,_RNCNvNtCsiDy2U3NWibf_10apex_macro9component18generate_components0_0B5_
FN:165,_RNCNvNtCsiDy2U3NWibf_10apex_macro9component18generate_components_0B5_
FN:43,_RNCNvNtCsiDy2U3NWibf_10apex_macro9component20parse_component_args0B5_
FN:44,_RNCNvNtCsiDy2U3NWibf_10apex_macro9component20parse_component_argss_0B5_
FN:239,_RNCNvNtCsiDy2U3NWibf_10apex_macro9component32generate_component_field_setters0B5_
FN:61,_RNvNtCsiDy2U3NWibf_10apex_macro9component18generate_component
FN:13,_RNvNtCsiDy2U3NWibf_10apex_macro9component20parse_component_args
FN:234,_RNvNtCsiDy2U3NWibf_10apex_macro9component32generate_component_field_setters
FN:164,_RNCNvNtCs2AkumeqEvNE_10apex_macro9component18generate_component0B5_
FN:168,_RNCNvNtCs2AkumeqEvNE_10apex_macro9component18generate_components0_0B5_
FN:165,_RNCNvNtCs2AkumeqEvNE_10apex_macro9component18generate_components_0B5_
FN:43,_RNCNvNtCs2AkumeqEvNE_10apex_macro9component20parse_component_args0B5_
FN:44,_RNCNvNtCs2AkumeqEvNE_10apex_macro9component20parse_component_argss_0B5_
FN:239,_RNCNvNtCs2AkumeqEvNE_10apex_macro9component32generate_component_field_setters0B5_
FN:61,_RNvNtCs2AkumeqEvNE_10apex_macro9component18generate_component
FN:13,_RNvNtCs2AkumeqEvNE_10apex_macro9component20parse_component_args
FN:234,_RNvNtCs2AkumeqEvNE_10apex_macro9component32generate_component_field_setters
FNDA:0,_RNCNvNtCsiDy2U3NWibf_10apex_macro9component18generate_component0B5_
FNDA:0,_RNCNvNtCsiDy2U3NWibf_10apex_macro9component18generate_components0_0B5_
FNDA:0,_RNCNvNtCsiDy2U3NWibf_10apex_macro9component18generate_components_0B5_
FNDA:0,_RNCNvNtCsiDy2U3NWibf_10apex_macro9component20parse_component_args0B5_
FNDA:0,_RNCNvNtCsiDy2U3NWibf_10apex_macro9component20parse_component_argss_0B5_
FNDA:0,_RNCNvNtCsiDy2U3NWibf_10apex_macro9component32generate_component_field_setters0B5_
FNDA:0,_RNvNtCsiDy2U3NWibf_10apex_macro9component18generate_component
FNDA:0,_RNvNtCsiDy2U3NWibf_10apex_macro9component20parse_component_args
FNDA:0,_RNvNtCsiDy2U3NWibf_10apex_macro9component32generate_component_field_setters
FNDA:0,_RNCNvNtCs2AkumeqEvNE_10apex_macro9component18generate_component0B5_
FNDA:0,_RNCNvNtCs2AkumeqEvNE_10apex_macro9component18generate_components0_0B5_
FNDA:0,_RNCNvNtCs2AkumeqEvNE_10apex_macro9component18generate_components_0B5_
FNDA:0,_RNCNvNtCs2AkumeqEvNE_10apex_macro9component20parse_component_args0B5_
FNDA:0,_RNCNvNtCs2AkumeqEvNE_10apex_macro9component20parse_component_argss_0B5_
FNDA:0,_RNCNvNtCs2AkumeqEvNE_10apex_macro9component32generate_component_field_setters0B5_
FNDA:0,_RNvNtCs2AkumeqEvNE_10apex_macro9component18generate_component
FNDA:0,_RNvNtCs2AkumeqEvNE_10apex_macro9component20parse_component_args
FNDA:0,_RNvNtCs2AkumeqEvNE_10apex_macro9component32generate_component_field_setters
FNF:9
FNH:0
DA:13,0
DA:14,0
DA:15,0
DA:16,0
DA:17,0
DA:18,0
DA:19,0
DA:22,0
DA:23,0
DA:24,0
DA:25,0
DA:26,0
DA:27,0
DA:28,0
DA:29,0
DA:30,0
DA:31,0
DA:34,0
DA:35,0
DA:36,0
DA:37,0
DA:38,0
DA:39,0
DA:40,0
DA:41,0
DA:42,0
DA:43,0
DA:44,0
DA:45,0
DA:46,0
DA:47,0
DA:48,0
DA:50,0
DA:51,0
DA:52,0
DA:53,0
DA:54,0
DA:55,0
DA:56,0
DA:57,0
DA:58,0
DA:61,0
DA:62,0
DA:63,0
DA:64,0
DA:65,0
DA:66,0
DA:69,0
DA:70,0
DA:71,0
DA:74,0
DA:75,0
DA:76,0
DA:77,0
DA:78,0
DA:79,0
DA:80,0
DA:81,0
DA:82,0
DA:83,0
DA:84,0
DA:85,0
DA:86,0
DA:87,0
DA:88,0
DA:89,0
DA:90,0
DA:91,0
DA:92,0
DA:93,0
DA:94,0
DA:95,0
DA:96,0
DA:97,0
DA:98,0
DA:99,0
DA:100,0
DA:101,0
DA:102,0
DA:103,0
DA:104,0
DA:106,0
DA:107,0
DA:108,0
DA:109,0
DA:110,0
DA:114,0
DA:115,0
DA:116,0
DA:117,0
DA:122,0
DA:123,0
DA:124,0
DA:126,0
DA:127,0
DA:128,0
DA:129,0
DA:130,0
DA:131,0
DA:132,0
DA:133,0
DA:135,0
DA:136,0
DA:138,0
DA:139,0
DA:140,0
DA:141,0
DA:142,0
DA:143,0
DA:144,0
DA:145,0
DA:146,0
DA:147,0
DA:150,0
DA:151,0
DA:152,0
DA:153,0
DA:154,0
DA:155,0
DA:156,0
DA:157,0
DA:158,0
DA:159,0
DA:160,0
DA:164,0
DA:165,0
DA:166,0
DA:167,0
DA:168,0
DA:169,0
DA:170,0
DA:172,0
DA:174,0
DA:175,0
DA:176,0
DA:177,0
DA:178,0
DA:179,0
DA:180,0
DA:182,0
DA:183,0
DA:184,0
DA:185,0
DA:186,0
DA:187,0
DA:188,0
DA:189,0
DA:190,0
DA:191,0
DA:192,0
DA:193,0
DA:194,0
DA:195,0
DA:196,0
DA:197,0
DA:198,0
DA:199,0
DA:200,0
DA:201,0
DA:202,0
DA:203,0
DA:204,0
DA:205,0
DA:206,0
DA:207,0
DA:208,0
DA:209,0
DA:210,0
DA:211,0
DA:212,0
DA:213,0
DA:214,0
DA:215,0
DA:216,0
DA:217,0
DA:218,0
DA:219,0
DA:220,0
DA:221,0
DA:222,0
DA:223,0
DA:224,0
DA:225,0
DA:226,0
DA:227,0
DA:228,0
DA:230,0
DA:231,0
DA:234,0
DA:235,0
DA:236,0
DA:237,0
DA:238,0
DA:239,0
DA:240,0
DA:241,0
DA:242,0
DA:243,0
DA:244,0
DA:245,0
DA:246,0
DA:247,0
DA:248,0
DA:249,0
DA:250,0
DA:251,0
DA:252,0
DA:253,0
DA:254,0
DA:255,0
DA:256,0
DA:257,0
DA:258,0
DA:261,0
DA:262,0
DA:263,0
DA:264,0
DA:265,0
DA:266,0
DA:267,0
DA:268,0
DA:270,0
DA:271,0
DA:272,0
BRF:0
BRH:0
LF:232
LH:0
end_of_record
SF:/Users/gugfug/Projects/project_apex/apex_macro/src/lib.rs
FN:102,_RNvCsiDy2U3NWibf_10apex_macro4tmpl
FN:68,_RNvCsiDy2U3NWibf_10apex_macro5route
FN:37,_RNvCsiDy2U3NWibf_10apex_macro9component
FN:102,_RNvCs2AkumeqEvNE_10apex_macro4tmpl
FN:68,_RNvCs2AkumeqEvNE_10apex_macro5route
FN:37,_RNvCs2AkumeqEvNE_10apex_macro9component
FNDA:0,_RNvCsiDy2U3NWibf_10apex_macro4tmpl
FNDA:0,_RNvCsiDy2U3NWibf_10apex_macro5route
FNDA:0,_RNvCsiDy2U3NWibf_10apex_macro9component
FNDA:13,_RNvCs2AkumeqEvNE_10apex_macro4tmpl
FNDA:0,_RNvCs2AkumeqEvNE_10apex_macro5route
FNDA:0,_RNvCs2AkumeqEvNE_10apex_macro9component
FNF:3
FNH:1
DA:37,0
DA:38,0
DA:41,0
DA:42,0
DA:43,0
DA:47,0
DA:48,0
DA:49,0
DA:51,0
DA:68,0
DA:69,0
DA:72,0
DA:73,0
DA:74,0
DA:78,0
DA:79,0
DA:80,0
DA:82,0
DA:102,13
DA:103,13
DA:104,13
DA:105,0
DA:107,13
BRF:0
BRH:0
LF:23
LH:4
end_of_record
SF:/Users/gugfug/Projects/project_apex/apex_macro/src/route.rs
FN:53,_RNvNtCsiDy2U3NWibf_10apex_macro5route14generate_route
FN:13,_RNvNtCsiDy2U3NWibf_10apex_macro5route16parse_route_args
FN:53,_RNvNtCs2AkumeqEvNE_10apex_macro5route14generate_route
FN:13,_RNvNtCs2AkumeqEvNE_10apex_macro5route16parse_route_args
FNDA:0,_RNvNtCsiDy2U3NWibf_10apex_macro5route14generate_route
FNDA:0,_RNvNtCsiDy2U3NWibf_10apex_macro5route16parse_route_args
FNDA:0,_RNvNtCs2AkumeqEvNE_10apex_macro5route14generate_route
FNDA:0,_RNvNtCs2AkumeqEvNE_10apex_macro5route16parse_route_args
FNF:2
FNH:0
DA:13,0
DA:14,0
DA:15,0
DA:16,0
DA:17,0
DA:18,0
DA:19,0
DA:22,0
DA:23,0
DA:24,0
DA:25,0
DA:26,0
DA:27,0
DA:28,0
DA:29,0
DA:30,0
DA:31,0
DA:34,0
DA:35,0
DA:36,0
DA:37,0
DA:38,0
DA:39,0
DA:40,0
DA:42,0
DA:43,0
DA:44,0
DA:45,0
DA:46,0
DA:47,0
DA:48,0
DA:49,0
DA:50,0
DA:53,0
DA:54,0
DA:55,0
DA:56,0
DA:57,0
DA:58,0
DA:61,0
DA:62,0
DA:63,0
DA:65,0
DA:66,0
DA:67,0
DA:68,0
DA:69,0
DA:70,0
DA:71,0
DA:72,0
DA:73,0
DA:74,0
DA:75,0
DA:76,0
DA:77,0
DA:78,0
DA:79,0
DA:80,0
DA:81,0
DA:82,0
DA:83,0
DA:84,0
DA:85,0
DA:86,0
DA:87,0
DA:88,0
DA:91,0
DA:92,0
DA:93,0
DA:94,0
DA:95,0
DA:96,0
DA:97,0
DA:98,0
DA:99,0
DA:100,0
DA:101,0
DA:102,0
DA:103,0
DA:104,0
DA:105,0
DA:106,0
DA:107,0
DA:108,0
DA:109,0
DA:110,0
DA:111,0
DA:115,0
DA:116,0
BRF:0
BRH:0
LF:89
LH:0
end_of_record
SF:/Users/gugfug/Projects/project_apex/apex_macro/src/tmpl/generate_dynamic_component_code.rs
FN:93,_RNCNvNtNtNtCsiDy2U3NWibf_10apex_macro4tmpl31generate_dynamic_component_code5tests11format_code0B9_
FN:94,_RNCNvNtNtNtCsiDy2U3NWibf_10apex_macro4tmpl31generate_dynamic_component_code5tests11format_codes_0B9_
FN:79,_RNvNtNtNtCsiDy2U3NWibf_10apex_macro4tmpl31generate_dynamic_component_code5tests11format_code
FN:100,_RNvNtNtNtCsiDy2U3NWibf_10apex_macro4tmpl31generate_dynamic_component_code5testss_18test_no_attributes
FN:190,_RNvNtNtNtCsiDy2U3NWibf_10apex_macro4tmpl31generate_dynamic_component_code5testss_26test_with_mixed_attributes
FN:227,_RNvNtNtNtCsiDy2U3NWibf_10apex_macro4tmpl31generate_dynamic_component_code5testss_27test_invalid_component_type
FN:117,_RNvNtNtNtCsiDy2U3NWibf_10apex_macro4tmpl31generate_dynamic_component_code5testss_27test_with_literal_attribute
FN:141,_RNvNtNtNtCsiDy2U3NWibf_10apex_macro4tmpl31generate_dynamic_component_code5testss_28test_with_variable_attribute
FN:166,_RNvNtNtNtCsiDy2U3NWibf_10apex_macro4tmpl31generate_dynamic_component_code5testss_30test_with_expression_attribute
FN:236,_RNvNtNtNtCsiDy2U3NWibf_10apex_macro4tmpl31generate_dynamic_component_code5testss_31test_with_invalid_variable_name
FN:259,_RNvNtNtNtCsiDy2U3NWibf_10apex_macro4tmpl31generate_dynamic_component_code5testss_32test_with_unparseable_expression
FN:30,_RNvNtNtCsiDy2U3NWibf_10apex_macro4tmpl31generate_dynamic_component_code31generate_dynamic_component_code
FN:30,_RNvNtNtCs2AkumeqEvNE_10apex_macro4tmpl31generate_dynamic_component_code31generate_dynamic_component_code
FNDA:87,_RNCNvNtNtNtCsiDy2U3NWibf_10apex_macro4tmpl31generate_dynamic_component_code5tests11format_code0B9_
FNDA:74,_RNCNvNtNtNtCsiDy2U3NWibf_10apex_macro4tmpl31generate_dynamic_component_code5tests11format_codes_0B9_
FNDA:13,_RNvNtNtNtCsiDy2U3NWibf_10apex_macro4tmpl31generate_dynamic_component_code5tests11format_code
FNDA:1,_RNvNtNtNtCsiDy2U3NWibf_10apex_macro4tmpl31generate_dynamic_component_code5testss_18test_no_attributes
FNDA:1,_RNvNtNtNtCsiDy2U3NWibf_10apex_macro4tmpl31generate_dynamic_component_code5testss_26test_with_mixed_attributes
FNDA:1,_RNvNtNtNtCsiDy2U3NWibf_10apex_macro4tmpl31generate_dynamic_component_code5testss_27test_invalid_component_type
FNDA:1,_RNvNtNtNtCsiDy2U3NWibf_10apex_macro4tmpl31generate_dynamic_component_code5testss_27test_with_literal_attribute
FNDA:1,_RNvNtNtNtCsiDy2U3NWibf_10apex_macro4tmpl31generate_dynamic_component_code5testss_28test_with_variable_attribute
FNDA:1,_RNvNtNtNtCsiDy2U3NWibf_10apex_macro4tmpl31generate_dynamic_component_code5testss_30test_with_expression_attribute
FNDA:1,_RNvNtNtNtCsiDy2U3NWibf_10apex_macro4tmpl31generate_dynamic_component_code5testss_31test_with_invalid_variable_name
FNDA:1,_RNvNtNtNtCsiDy2U3NWibf_10apex_macro4tmpl31generate_dynamic_component_code5testss_32test_with_unparseable_expression
FNDA:8,_RNvNtNtCsiDy2U3NWibf_10apex_macro4tmpl31generate_dynamic_component_code31generate_dynamic_component_code
FNDA:0,_RNvNtNtCs2AkumeqEvNE_10apex_macro4tmpl31generate_dynamic_component_code31generate_dynamic_component_code
FNF:12
FNH:12
DA:30,8
DA:31,8
DA:32,8
DA:33,8
DA:34,8
DA:37,7
DA:39,15
DA:40,8
DA:41,2
DA:42,2
DA:43,2
DA:44,2
DA:45,2
DA:46,3
DA:47,3
DA:48,2
DA:49,2
DA:50,2
DA:51,2
DA:53,3
DA:54,3
DA:55,2
DA:56,2
DA:57,2
DA:58,2
DA:63,7
DA:64,7
DA:65,7
DA:66,7
DA:67,7
DA:68,7
DA:69,7
DA:70,7
DA:71,8
DA:79,13
DA:80,13
DA:81,13
DA:82,13
DA:83,13
DA:84,13
DA:85,13
DA:86,13
DA:87,13
DA:88,13
DA:89,13
DA:90,13
DA:91,13
DA:92,13
DA:93,87
DA:94,74
DA:95,13
DA:96,13
DA:97,13
DA:100,1
DA:101,1
DA:102,1
DA:103,1
DA:104,1
DA:105,1
DA:106,1
DA:107,1
DA:108,1
DA:109,1
DA:110,1
DA:111,1
DA:112,1
DA:113,1
DA:114,1
DA:117,1
DA:118,1
DA:119,1
DA:120,1
DA:121,1
DA:122,1
DA:123,1
DA:124,1
DA:125,1
DA:126,1
DA:127,1
DA:128,1
DA:129,1
DA:130,1
DA:131,1
DA:132,1
DA:133,1
DA:134,1
DA:135,1
DA:136,1
DA:137,1
DA:138,1
DA:141,1
DA:142,1
DA:143,1
DA:144,1
DA:145,1
DA:146,1
DA:147,1
DA:148,1
DA:149,1
DA:150,1
DA:151,1
DA:152,1
DA:153,1
DA:154,1
DA:155,1
DA:156,1
DA:157,1
DA:158,1
DA:159,1
DA:160,1
DA:161,1
DA:162,1
DA:163,1
DA:166,1
DA:167,1
DA:168,1
DA:169,1
DA:170,1
DA:171,1
DA:172,1
DA:173,1
DA:174,1
DA:175,1
DA:176,1
DA:177,1
DA:178,1
DA:179,1
DA:180,1
DA:181,1
DA:182,1
DA:183,1
DA:184,1
DA:185,1
DA:186,1
DA:187,1
DA:190,1
DA:191,1
DA:192,1
DA:193,1
DA:194,1
DA:195,1
DA:196,1
DA:197,1
DA:198,1
DA:199,1
DA:200,1
DA:201,1
DA:202,1
DA:203,1
DA:204,1
DA:205,1
DA:206,1
DA:207,1
DA:208,1
DA:209,1
DA:210,1
DA:211,1
DA:212,1
DA:213,1
DA:214,1
DA:215,1
DA:216,1
DA:217,1
DA:218,1
DA:219,1
DA:220,1
DA:221,1
DA:222,1
DA:223,1
DA:224,1
DA:227,1
DA:228,1
DA:229,1
DA:230,1
DA:231,1
DA:232,1
DA:233,1
DA:236,1
DA:237,1
DA:238,1
DA:239,1
DA:240,1
DA:241,1
DA:242,1
DA:243,1
DA:244,1
DA:245,1
DA:246,1
DA:247,1
DA:248,1
DA:249,1
DA:250,1
DA:251,1
DA:252,1
DA:253,1
DA:254,1
DA:255,1
DA:256,1
DA:259,1
DA:260,1
DA:261,1
DA:262,1
DA:263,1
DA:264,1
DA:265,1
DA:266,1
DA:267,1
DA:268,1
DA:269,1
DA:270,1
DA:271,1
DA:272,1
DA:273,1
DA:274,1
DA:275,1
DA:276,1
DA:277,1
DA:278,1
DA:279,1
DA:280,1
BRF:0
BRH:0
LF:222
LH:222
end_of_record
SF:/Users/gugfug/Projects/project_apex/apex_macro/src/tmpl/generate_html_opening_tag_code.rs
FN:79,_RNvNtNtNtCsiDy2U3NWibf_10apex_macro4tmpl30generate_html_opening_tag_code5testss_52test_generate_html_opening_tag_code_empty_attributes
FN:168,_RNvNtNtNtCsiDy2U3NWibf_10apex_macro4tmpl30generate_html_opening_tag_code5testss_53test_generate_html_opening_tag_code_special_html_tags
FN:251,_RNvNtNtNtCsiDy2U3NWibf_10apex_macro4tmpl30generate_html_opening_tag_code5testss_54test_generate_html_opening_tag_code_complex_expression
FN:213,_RNvNtNtNtCsiDy2U3NWibf_10apex_macro4tmpl30generate_html_opening_tag_code5testss_54test_generate_html_opening_tag_code_invalid_expression
FN:196,_RNvNtNtNtCsiDy2U3NWibf_10apex_macro4tmpl30generate_html_opening_tag_code5testss_57test_generate_html_opening_tag_code_invalid_variable_name
FN:321,_RNvNtNtNtCsiDy2U3NWibf_10apex_macro4tmpl30generate_html_opening_tag_code5testss_57test_generate_html_opening_tag_code_with_quotes_in_values
FN:230,_RNvNtNtNtCsiDy2U3NWibf_10apex_macro4tmpl30generate_html_opening_tag_code5testss_58test_generate_html_opening_tag_code_empty_attribute_values
FN:293,_RNvNtNtNtCsiDy2U3NWibf_10apex_macro4tmpl30generate_html_opening_tag_code5testss_58test_generate_html_opening_tag_code_with_helper_attributes
FN:271,_RNvNtNtNtCsiDy2U3NWibf_10apex_macro4tmpl30generate_html_opening_tag_code5testss_59test_generate_html_opening_tag_code_boolean_like_attributes
FN:90,_RNvNtNtNtCsiDy2U3NWibf_10apex_macro4tmpl30generate_html_opening_tag_code5testss_60test_generate_html_opening_tag_code_single_literal_attribute
FN:139,_RNvNtNtNtCsiDy2U3NWibf_10apex_macro4tmpl30generate_html_opening_tag_code5testss_61test_generate_html_opening_tag_code_multiple_mixed_attributes
FN:107,_RNvNtNtNtCsiDy2U3NWibf_10apex_macro4tmpl30generate_html_opening_tag_code5testss_61test_generate_html_opening_tag_code_single_variable_attribute
FN:123,_RNvNtNtNtCsiDy2U3NWibf_10apex_macro4tmpl30generate_html_opening_tag_code5testss_63test_generate_html_opening_tag_code_single_expression_attribute
FN:180,_RNvNtNtNtCsiDy2U3NWibf_10apex_macro4tmpl30generate_html_opening_tag_code5testss_69test_generate_html_opening_tag_code_attribute_with_special_characters
FN:37,_RNCNvNtNtCsiDy2U3NWibf_10apex_macro4tmpl30generate_html_opening_tag_code30generate_html_opening_tag_code0B7_
FN:22,_RNvNtNtCsiDy2U3NWibf_10apex_macro4tmpl30generate_html_opening_tag_code30generate_html_opening_tag_code
FN:22,_RNvNtNtCs2AkumeqEvNE_10apex_macro4tmpl30generate_html_opening_tag_code30generate_html_opening_tag_code
FN:37,_RNCNvNtNtCs2AkumeqEvNE_10apex_macro4tmpl30generate_html_opening_tag_code30generate_html_opening_tag_code0B7_
FNDA:1,_RNvNtNtNtCsiDy2U3NWibf_10apex_macro4tmpl30generate_html_opening_tag_code5testss_52test_generate_html_opening_tag_code_empty_attributes
FNDA:1,_RNvNtNtNtCsiDy2U3NWibf_10apex_macro4tmpl30generate_html_opening_tag_code5testss_53test_generate_html_opening_tag_code_special_html_tags
FNDA:1,_RNvNtNtNtCsiDy2U3NWibf_10apex_macro4tmpl30generate_html_opening_tag_code5testss_54test_generate_html_opening_tag_code_complex_expression
FNDA:1,_RNvNtNtNtCsiDy2U3NWibf_10apex_macro4tmpl30generate_html_opening_tag_code5testss_54test_generate_html_opening_tag_code_invalid_expression
FNDA:1,_RNvNtNtNtCsiDy2U3NWibf_10apex_macro4tmpl30generate_html_opening_tag_code5testss_57test_generate_html_opening_tag_code_invalid_variable_name
FNDA:1,_RNvNtNtNtCsiDy2U3NWibf_10apex_macro4tmpl30generate_html_opening_tag_code5testss_57test_generate_html_opening_tag_code_with_quotes_in_values
FNDA:1,_RNvNtNtNtCsiDy2U3NWibf_10apex_macro4tmpl30generate_html_opening_tag_code5testss_58test_generate_html_opening_tag_code_empty_attribute_values
FNDA:1,_RNvNtNtNtCsiDy2U3NWibf_10apex_macro4tmpl30generate_html_opening_tag_code5testss_58test_generate_html_opening_tag_code_with_helper_attributes
FNDA:1,_RNvNtNtNtCsiDy2U3NWibf_10apex_macro4tmpl30generate_html_opening_tag_code5testss_59test_generate_html_opening_tag_code_boolean_like_attributes
FNDA:1,_RNvNtNtNtCsiDy2U3NWibf_10apex_macro4tmpl30generate_html_opening_tag_code5testss_60test_generate_html_opening_tag_code_single_literal_attribute
FNDA:1,_RNvNtNtNtCsiDy2U3NWibf_10apex_macro4tmpl30generate_html_opening_tag_code5testss_61test_generate_html_opening_tag_code_multiple_mixed_attributes
FNDA:1,_RNvNtNtNtCsiDy2U3NWibf_10apex_macro4tmpl30generate_html_opening_tag_code5testss_61test_generate_html_opening_tag_code_single_variable_attribute
FNDA:1,_RNvNtNtNtCsiDy2U3NWibf_10apex_macro4tmpl30generate_html_opening_tag_code5testss_63test_generate_html_opening_tag_code_single_expression_attribute
FNDA:1,_RNvNtNtNtCsiDy2U3NWibf_10apex_macro4tmpl30generate_html_opening_tag_code5testss_69test_generate_html_opening_tag_code_attribute_with_special_characters
FNDA:18,_RNCNvNtNtCsiDy2U3NWibf_10apex_macro4tmpl30generate_html_opening_tag_code30generate_html_opening_tag_code0B7_
FNDA:18,_RNvNtNtCsiDy2U3NWibf_10apex_macro4tmpl30generate_html_opening_tag_code30generate_html_opening_tag_code
FNDA:34,_RNvNtNtCs2AkumeqEvNE_10apex_macro4tmpl30generate_html_opening_tag_code30generate_html_opening_tag_code
FNDA:12,_RNCNvNtNtCs2AkumeqEvNE_10apex_macro4tmpl30generate_html_opening_tag_code30generate_html_opening_tag_code0B7_
FNF:16
FNH:16
DA:22,52
DA:23,52
DA:24,52
DA:25,52
DA:26,52
DA:27,52
DA:29,52
DA:30,31
DA:32,21
DA:33,21
DA:34,21
DA:35,21
DA:36,21
DA:37,30
DA:38,30
DA:39,30
DA:40,15
DA:41,15
DA:43,6
DA:44,6
DA:45,5
DA:47,1
DA:50,9
DA:51,9
DA:52,8
DA:56,1
DA:60,30
DA:61,21
DA:62,21
DA:63,21
DA:64,21
DA:65,21
DA:66,21
DA:67,21
DA:68,21
DA:70,52
DA:79,1
DA:80,1
DA:81,1
DA:82,1
DA:83,1
DA:84,1
DA:85,1
DA:86,1
DA:87,1
DA:90,1
DA:91,1
DA:92,1
DA:93,1
DA:94,1
DA:95,1
DA:96,1
DA:97,1
DA:98,1
DA:99,1
DA:100,1
DA:101,1
DA:102,1
DA:103,1
DA:104,1
DA:107,1
DA:108,1
DA:109,1
DA:110,1
DA:111,1
DA:112,1
DA:113,1
DA:114,1
DA:115,1
DA:116,1
DA:117,1
DA:118,1
DA:119,1
DA:120,1
DA:123,1
DA:124,1
DA:125,1
DA:126,1
DA:127,1
DA:128,1
DA:129,1
DA:130,1
DA:131,1
DA:132,1
DA:133,1
DA:134,1
DA:135,1
DA:136,1
DA:139,1
DA:140,1
DA:141,1
DA:142,1
DA:143,1
DA:144,1
DA:145,1
DA:146,1
DA:147,1
DA:148,1
DA:149,1
DA:150,1
DA:151,1
DA:152,1
DA:153,1
DA:154,1
DA:155,1
DA:156,1
DA:157,1
DA:158,1
DA:159,1
DA:160,1
DA:161,1
DA:162,1
DA:163,1
DA:164,1
DA:165,1
DA:168,1
DA:169,1
DA:171,6
DA:172,5
DA:173,5
DA:174,5
DA:175,5
DA:177,1
DA:180,1
DA:181,1
DA:182,1
DA:183,1
DA:184,1
DA:185,1
DA:186,1
DA:187,1
DA:188,1
DA:189,1
DA:190,1
DA:191,1
DA:192,1
DA:193,1
DA:196,1
DA:197,1
DA:198,1
DA:199,1
DA:200,1
DA:201,1
DA:202,1
DA:203,1
DA:204,1
DA:205,1
DA:206,1
DA:207,1
DA:208,1
DA:209,1
DA:210,1
DA:213,1
DA:214,1
DA:215,1
DA:216,1
DA:217,1
DA:218,1
DA:219,1
DA:220,1
DA:221,1
DA:222,1
DA:223,1
DA:224,1
DA:225,1
DA:226,1
DA:227,1
DA:230,1
DA:231,1
DA:232,1
DA:233,1
DA:234,1
DA:235,1
DA:236,1
DA:237,1
DA:238,1
DA:239,1
DA:240,1
DA:241,1
DA:242,1
DA:243,1
DA:244,1
DA:245,1
DA:246,1
DA:247,1
DA:248,1
DA:251,1
DA:252,1
DA:253,1
DA:254,1
DA:255,1
DA:256,1
DA:257,1
DA:258,1
DA:259,1
DA:260,1
DA:261,1
DA:262,1
DA:263,1
DA:264,1
DA:265,1
DA:266,1
DA:267,1
DA:268,1
DA:271,1
DA:272,1
DA:273,1
DA:274,1
DA:275,1
DA:276,1
DA:277,1
DA:278,1
DA:279,1
DA:280,1
DA:281,1
DA:282,1
DA:283,1
DA:284,1
DA:285,1
DA:286,1
DA:287,1
DA:288,1
DA:289,1
DA:290,1
DA:293,1
DA:294,1
DA:295,1
DA:296,1
DA:297,1
DA:298,1
DA:299,1
DA:300,1
DA:301,1
DA:302,1
DA:303,1
DA:304,1
DA:305,1
DA:306,1
DA:307,1
DA:308,1
DA:309,1
DA:310,1
DA:311,1
DA:312,1
DA:313,1
DA:314,1
DA:315,1
DA:316,1
DA:317,1
DA:318,1
DA:321,1
DA:322,1
DA:323,1
DA:324,1
DA:325,1
DA:326,1
DA:327,1
DA:328,1
DA:329,1
DA:330,1
DA:331,1
DA:332,1
DA:333,1
DA:334,1
BRF:0
BRH:0
LF:266
LH:266
end_of_record
SF:/Users/gugfug/Projects/project_apex/apex_macro/src/tmpl/get_component_mapping.rs
FN:10,_RNvNtNtCsiDy2U3NWibf_10apex_macro4tmpl21get_component_mapping21get_component_mapping
FN:10,_RNvNtNtCs2AkumeqEvNE_10apex_macro4tmpl21get_component_mapping21get_component_mapping
FNDA:0,_RNvNtNtCsiDy2U3NWibf_10apex_macro4tmpl21get_component_mapping21get_component_mapping
FNDA:0,_RNvNtNtCs2AkumeqEvNE_10apex_macro4tmpl21get_component_mapping21get_component_mapping
FNF:1
FNH:0
DA:10,0
DA:11,0
DA:12,0
DA:13,0
DA:14,0
DA:15,0
DA:16,0
DA:17,0
DA:18,0
DA:19,0
DA:20,0
DA:21,0
BRF:0
BRH:0
LF:12
LH:0
end_of_record
SF:/Users/gugfug/Projects/project_apex/apex_macro/src/tmpl/mod.rs
FN:281,_RNCNvNtCsiDy2U3NWibf_10apex_macro4tmpl29infer_component_type_from_tag0B5_
FN:113,_RNvNtCsiDy2U3NWibf_10apex_macro4tmpl17parse_tag_content
FN:64,_RNvNtCsiDy2U3NWibf_10apex_macro4tmpl20parse_html_structure
FN:214,_RNvNtCsiDy2U3NWibf_10apex_macro4tmpl21generate_render_parts
FN:22,_RNvNtCsiDy2U3NWibf_10apex_macro4tmpl23parse_tmpl_with_context
FN:278,_RNvNtCsiDy2U3NWibf_10apex_macro4tmpl29infer_component_type_from_tag
FN:207,_RNvNtCsiDy2U3NWibf_10apex_macro4tmpl30parse_html_attributes_from_str
FN:250,_RNvNtCsiDy2U3NWibf_10apex_macro4tmpl34generate_production_component_code
FN:162,_RNvNtCsiDy2U3NWibf_10apex_macro4tmpl46parse_production_component_attributes_from_str
FN:113,_RNvNtCs2AkumeqEvNE_10apex_macro4tmpl17parse_tag_content
FN:64,_RNvNtCs2AkumeqEvNE_10apex_macro4tmpl20parse_html_structure
FN:214,_RNvNtCs2AkumeqEvNE_10apex_macro4tmpl21generate_render_parts
FN:22,_RNvNtCs2AkumeqEvNE_10apex_macro4tmpl23parse_tmpl_with_context
FN:278,_RNvNtCs2AkumeqEvNE_10apex_macro4tmpl29infer_component_type_from_tag
FN:207,_RNvNtCs2AkumeqEvNE_10apex_macro4tmpl30parse_html_attributes_from_str
FN:250,_RNvNtCs2AkumeqEvNE_10apex_macro4tmpl34generate_production_component_code
FN:162,_RNvNtCs2AkumeqEvNE_10apex_macro4tmpl46parse_production_component_attributes_from_str
FN:281,_RNCNvNtCs2AkumeqEvNE_10apex_macro4tmpl29infer_component_type_from_tag0B5_
FNDA:0,_RNCNvNtCsiDy2U3NWibf_10apex_macro4tmpl29infer_component_type_from_tag0B5_
FNDA:0,_RNvNtCsiDy2U3NWibf_10apex_macro4tmpl17parse_tag_content
FNDA:0,_RNvNtCsiDy2U3NWibf_10apex_macro4tmpl20parse_html_structure
FNDA:0,_RNvNtCsiDy2U3NWibf_10apex_macro4tmpl21generate_render_parts
FNDA:0,_RNvNtCsiDy2U3NWibf_10apex_macro4tmpl23parse_tmpl_with_context
FNDA:0,_RNvNtCsiDy2U3NWibf_10apex_macro4tmpl29infer_component_type_from_tag
FNDA:0,_RNvNtCsiDy2U3NWibf_10apex_macro4tmpl30parse_html_attributes_from_str
FNDA:0,_RNvNtCsiDy2U3NWibf_10apex_macro4tmpl34generate_production_component_code
FNDA:0,_RNvNtCsiDy2U3NWibf_10apex_macro4tmpl46parse_production_component_attributes_from_str
FNDA:34,_RNvNtCs2AkumeqEvNE_10apex_macro4tmpl17parse_tag_content
FNDA:13,_RNvNtCs2AkumeqEvNE_10apex_macro4tmpl20parse_html_structure
FNDA:13,_RNvNtCs2AkumeqEvNE_10apex_macro4tmpl21generate_render_parts
FNDA:13,_RNvNtCs2AkumeqEvNE_10apex_macro4tmpl23parse_tmpl_with_context
FNDA:0,_RNvNtCs2AkumeqEvNE_10apex_macro4tmpl29infer_component_type_from_tag
FNDA:34,_RNvNtCs2AkumeqEvNE_10apex_macro4tmpl30parse_html_attributes_from_str
FNDA:0,_RNvNtCs2AkumeqEvNE_10apex_macro4tmpl34generate_production_component_code
FNDA:34,_RNvNtCs2AkumeqEvNE_10apex_macro4tmpl46parse_production_component_attributes_from_str
FNDA:0,_RNCNvNtCs2AkumeqEvNE_10apex_macro4tmpl29infer_component_type_from_tag0B5_
FNF:9
FNH:6
DA:22,13
DA:23,13
DA:25,13
DA:26,13
DA:28,13
DA:29,2
DA:30,2
DA:31,2
DA:33,11
DA:34,11
DA:35,11
DA:37,13
DA:64,13
DA:65,13
DA:66,13
DA:67,13
DA:68,13
DA:70,133
DA:71,6
DA:74,34
DA:75,19
DA:76,19
DA:77,19
DA:80,34
DA:81,34
DA:82,34
DA:83,34
DA:85,6
DA:86,6
DA:87,6
DA:88,6
DA:89,4
DA:90,4
DA:91,4
DA:94,6
DA:95,6
DA:96,6
DA:98,80
DA:99,80
DA:100,80
DA:105,13
DA:106,0
DA:107,13
DA:109,13
DA:110,13
DA:113,34
DA:114,34
DA:115,34
DA:118,360
DA:119,360
DA:120,34
DA:121,34
DA:122,326
DA:123,326
DA:124,326
DA:125,4
DA:126,322
DA:127,4
DA:128,318
DA:129,326
DA:132,34
DA:133,0
DA:134,34
DA:135,34
DA:136,34
DA:137,34
DA:138,34
DA:139,34
DA:140,34
DA:141,34
DA:142,0
DA:143,0
DA:145,0
DA:146,0
DA:147,0
DA:148,0
DA:151,34
DA:152,34
DA:153,34
DA:154,34
DA:155,34
DA:156,34
DA:157,34
DA:159,34
DA:162,34
DA:163,34
DA:164,34
DA:165,34
DA:166,34
DA:167,34
DA:168,34
DA:169,25
DA:170,9
DA:171,9
DA:172,9
DA:173,9
DA:174,9
DA:175,9
DA:177,206
DA:178,197
DA:180,5
DA:181,5
DA:182,5
DA:183,5
DA:184,192
DA:185,4
DA:186,4
DA:187,4
DA:188,188
DA:189,4
DA:190,4
DA:191,184
DA:192,184
DA:193,184
DA:197,9
DA:198,9
DA:199,7
DA:200,7
DA:201,0
DA:203,9
DA:204,34
DA:207,34
DA:208,34
DA:209,34
DA:210,34
DA:211,34
DA:214,13
DA:215,13
DA:217,76
DA:218,63
DA:219,23
DA:220,23
DA:221,15
DA:222,15
DA:224,6
DA:225,6
DA:226,6
DA:227,6
DA:230,0
DA:232,0
DA:233,0
DA:236,34
DA:237,34
DA:238,34
DA:239,34
DA:240,34
DA:241,34
DA:242,34
DA:246,13
DA:247,13
DA:250,0
DA:251,0
DA:252,0
DA:253,0
DA:254,0
DA:255,0
DA:257,0
DA:258,0
DA:261,0
DA:262,0
DA:263,0
DA:266,0
DA:267,0
DA:268,0
DA:269,0
DA:270,0
DA:271,0
DA:272,0
DA:275,0
DA:278,0
DA:279,0
DA:280,0
DA:281,0
DA:282,0
DA:283,0
DA:284,0
DA:285,0
DA:287,0
DA:288,0
DA:289,0
BRF:0
BRH:0
LF:182
LH:138
end_of_record
SF:/Users/gugfug/Projects/project_apex/apex_macro/src/tmpl/parse_single_attribute.rs
FN:151,_RNCNvNtNtCsiDy2U3NWibf_10apex_macro4tmpl22parse_single_attribute22parse_single_attribute0B7_
FN:139,_RNvNtNtCsiDy2U3NWibf_10apex_macro4tmpl22parse_single_attribute22parse_single_attribute
FN:139,_RNvNtNtCs2AkumeqEvNE_10apex_macro4tmpl22parse_single_attribute22parse_single_attribute
FN:151,_RNCNvNtNtCs2AkumeqEvNE_10apex_macro4tmpl22parse_single_attribute22parse_single_attribute0B7_
FNDA:0,_RNCNvNtNtCsiDy2U3NWibf_10apex_macro4tmpl22parse_single_attribute22parse_single_attribute0B7_
FNDA:0,_RNvNtNtCsiDy2U3NWibf_10apex_macro4tmpl22parse_single_attribute22parse_single_attribute
FNDA:14,_RNvNtNtCs2AkumeqEvNE_10apex_macro4tmpl22parse_single_attribute22parse_single_attribute
FNDA:3,_RNCNvNtNtCs2AkumeqEvNE_10apex_macro4tmpl22parse_single_attribute22parse_single_attribute0B7_
FNF:2
FNH:2
DA:139,14
DA:140,14
DA:141,14
DA:142,14
DA:143,12
DA:144,12
DA:146,12
DA:147,9
DA:148,3
DA:149,3
DA:150,3
DA:151,3
DA:152,0
DA:154,3
DA:157,0
DA:160,12
DA:162,2
DA:164,14
BRF:0
BRH:0
LF:19
LH:17
end_of_record
SF:/Users/gugfug/Projects/project_apex/apex_macro/src/tmpl/parse_tag_name_and_attributes.rs
FN:192,_RNvNtNtNtCsiDy2U3NWibf_10apex_macro4tmpl29parse_tag_name_and_attributes5testss_17test_empty_string
FN:200,_RNvNtNtNtCsiDy2U3NWibf_10apex_macro4tmpl29parse_tag_name_and_attributes5testss_20test_whitespace_only
FN:103,_RNvNtNtNtCsiDy2U3NWibf_10apex_macro4tmpl29parse_tag_name_and_attributes5testss_24test_tag_with_attributes
FN:224,_RNvNtNtNtCsiDy2U3NWibf_10apex_macro4tmpl29parse_tag_name_and_attributes5testss_24test_tag_with_only_space
FN:208,_RNvNtNtNtCsiDy2U3NWibf_10apex_macro4tmpl29parse_tag_name_and_attributes5testss_25test_single_character_tag
FN:253,_RNvNtNtNtCsiDy2U3NWibf_10apex_macro4tmpl29parse_tag_name_and_attributes5testss_26test_component_with_hyphen
FN:120,_RNvNtNtNtCsiDy2U3NWibf_10apex_macro4tmpl29parse_tag_name_and_attributes5testss_27test_tag_without_attributes
FN:144,_RNvNtNtNtCsiDy2U3NWibf_10apex_macro4tmpl29parse_tag_name_and_attributes5testss_32test_tag_with_leading_whitespace
FN:136,_RNvNtNtNtCsiDy2U3NWibf_10apex_macro4tmpl29parse_tag_name_and_attributes5testss_33test_html_element_with_attributes
FN:152,_RNvNtNtNtCsiDy2U3NWibf_10apex_macro4tmpl29parse_tag_name_and_attributes5testss_33test_tag_with_trailing_whitespace
FN:240,_RNvNtNtNtCsiDy2U3NWibf_10apex_macro4tmpl29parse_tag_name_and_attributes5testss_35test_complex_attributes_with_quotes
FN:112,_RNvNtNtNtCsiDy2U3NWibf_10apex_macro4tmpl29parse_tag_name_and_attributes5testss_37test_self_closing_tag_with_attributes
FN:232,_RNvNtNtNtCsiDy2U3NWibf_10apex_macro4tmpl29parse_tag_name_and_attributes5testss_37test_self_closing_tag_with_only_slash
FN:261,_RNvNtNtNtCsiDy2U3NWibf_10apex_macro4tmpl29parse_tag_name_and_attributes5testss_39test_self_closing_component_with_hyphen
FN:128,_RNvNtNtNtCsiDy2U3NWibf_10apex_macro4tmpl29parse_tag_name_and_attributes5testss_40test_self_closing_tag_without_attributes
FN:216,_RNvNtNtNtCsiDy2U3NWibf_10apex_macro4tmpl29parse_tag_name_and_attributes5testss_41test_single_character_tag_with_attributes
FN:269,_RNvNtNtNtCsiDy2U3NWibf_10apex_macro4tmpl29parse_tag_name_and_attributes5testss_43test_tag_ending_with_slash_but_space_before
FN:184,_RNvNtNtNtCsiDy2U3NWibf_10apex_macro4tmpl29parse_tag_name_and_attributes5testss_43test_tag_with_multiple_spaces_in_attributes
FN:176,_RNvNtNtNtCsiDy2U3NWibf_10apex_macro4tmpl29parse_tag_name_and_attributes5testss_45test_self_closing_with_whitespace_after_slash
FN:168,_RNvNtNtNtCsiDy2U3NWibf_10apex_macro4tmpl29parse_tag_name_and_attributes5testss_46test_self_closing_with_whitespace_before_slash
FN:160,_RNvNtNtNtCsiDy2U3NWibf_10apex_macro4tmpl29parse_tag_name_and_attributes5testss_50test_tag_with_both_leading_and_trailing_whitespace
FN:83,_RNvNtNtCsiDy2U3NWibf_10apex_macro4tmpl29parse_tag_name_and_attributes29parse_tag_name_and_attributes
FN:83,_RNvNtNtCs2AkumeqEvNE_10apex_macro4tmpl29parse_tag_name_and_attributes29parse_tag_name_and_attributes
FNDA:1,_RNvNtNtNtCsiDy2U3NWibf_10apex_macro4tmpl29parse_tag_name_and_attributes5testss_17test_empty_string
FNDA:1,_RNvNtNtNtCsiDy2U3NWibf_10apex_macro4tmpl29parse_tag_name_and_attributes5testss_20test_whitespace_only
FNDA:1,_RNvNtNtNtCsiDy2U3NWibf_10apex_macro4tmpl29parse_tag_name_and_attributes5testss_24test_tag_with_attributes
FNDA:1,_RNvNtNtNtCsiDy2U3NWibf_10apex_macro4tmpl29parse_tag_name_and_attributes5testss_24test_tag_with_only_space
FNDA:1,_RNvNtNtNtCsiDy2U3NWibf_10apex_macro4tmpl29parse_tag_name_and_attributes5testss_25test_single_character_tag
FNDA:1,_RNvNtNtNtCsiDy2U3NWibf_10apex_macro4tmpl29parse_tag_name_and_attributes5testss_26test_component_with_hyphen
FNDA:1,_RNvNtNtNtCsiDy2U3NWibf_10apex_macro4tmpl29parse_tag_name_and_attributes5testss_27test_tag_without_attributes
FNDA:1,_RNvNtNtNtCsiDy2U3NWibf_10apex_macro4tmpl29parse_tag_name_and_attributes5testss_32test_tag_with_leading_whitespace
FNDA:1,_RNvNtNtNtCsiDy2U3NWibf_10apex_macro4tmpl29parse_tag_name_and_attributes5testss_33test_html_element_with_attributes
FNDA:1,_RNvNtNtNtCsiDy2U3NWibf_10apex_macro4tmpl29parse_tag_name_and_attributes5testss_33test_tag_with_trailing_whitespace
FNDA:1,_RNvNtNtNtCsiDy2U3NWibf_10apex_macro4tmpl29parse_tag_name_and_attributes5testss_35test_complex_attributes_with_quotes
FNDA:1,_RNvNtNtNtCsiDy2U3NWibf_10apex_macro4tmpl29parse_tag_name_and_attributes5testss_37test_self_closing_tag_with_attributes
FNDA:1,_RNvNtNtNtCsiDy2U3NWibf_10apex_macro4tmpl29parse_tag_name_and_attributes5testss_37test_self_closing_tag_with_only_slash
FNDA:1,_RNvNtNtNtCsiDy2U3NWibf_10apex_macro4tmpl29parse_tag_name_and_attributes5testss_39test_self_closing_component_with_hyphen
FNDA:1,_RNvNtNtNtCsiDy2U3NWibf_10apex_macro4tmpl29parse_tag_name_and_attributes5testss_40test_self_closing_tag_without_attributes
FNDA:1,_RNvNtNtNtCsiDy2U3NWibf_10apex_macro4tmpl29parse_tag_name_and_attributes5testss_41test_single_character_tag_with_attributes
FNDA:1,_RNvNtNtNtCsiDy2U3NWibf_10apex_macro4tmpl29parse_tag_name_and_attributes5testss_43test_tag_ending_with_slash_but_space_before
FNDA:1,_RNvNtNtNtCsiDy2U3NWibf_10apex_macro4tmpl29parse_tag_name_and_attributes5testss_43test_tag_with_multiple_spaces_in_attributes
FNDA:1,_RNvNtNtNtCsiDy2U3NWibf_10apex_macro4tmpl29parse_tag_name_and_attributes5testss_45test_self_closing_with_whitespace_after_slash
FNDA:1,_RNvNtNtNtCsiDy2U3NWibf_10apex_macro4tmpl29parse_tag_name_and_attributes5testss_46test_self_closing_with_whitespace_before_slash
FNDA:1,_RNvNtNtNtCsiDy2U3NWibf_10apex_macro4tmpl29parse_tag_name_and_attributes5testss_50test_tag_with_both_leading_and_trailing_whitespace
FNDA:21,_RNvNtNtCsiDy2U3NWibf_10apex_macro4tmpl29parse_tag_name_and_attributes29parse_tag_name_and_attributes
FNDA:34,_RNvNtNtCs2AkumeqEvNE_10apex_macro4tmpl29parse_tag_name_and_attributes29parse_tag_name_and_attributes
FNF:22
FNH:22
DA:83,55
DA:84,55
DA:86,55
DA:87,22
DA:88,22
DA:89,22
DA:90,22
DA:92,33
DA:93,33
DA:94,33
DA:96,55
DA:103,1
DA:104,1
DA:105,1
DA:106,1
DA:107,1
DA:108,1
DA:109,1
DA:112,1
DA:113,1
DA:114,1
DA:115,1
DA:116,1
DA:117,1
DA:120,1
DA:121,1
DA:122,1
DA:123,1
DA:124,1
DA:125,1
DA:128,1
DA:129,1
DA:130,1
DA:131,1
DA:132,1
DA:133,1
DA:136,1
DA:137,1
DA:138,1
DA:139,1
DA:140,1
DA:141,1
DA:144,1
DA:145,1
DA:146,1
DA:147,1
DA:148,1
DA:149,1
DA:152,1
DA:153,1
DA:154,1
DA:155,1
DA:156,1
DA:157,1
DA:160,1
DA:161,1
DA:162,1
DA:163,1
DA:164,1
DA:165,1
DA:168,1
DA:169,1
DA:170,1
DA:171,1
DA:172,1
DA:173,1
DA:176,1
DA:177,1
DA:178,1
DA:179,1
DA:180,1
DA:181,1
DA:184,1
DA:185,1
DA:186,1
DA:187,1
DA:188,1
DA:189,1
DA:192,1
DA:193,1
DA:194,1
DA:195,1
DA:196,1
DA:197,1
DA:200,1
DA:201,1
DA:202,1
DA:203,1
DA:204,1
DA:205,1
DA:208,1
DA:209,1
DA:210,1
DA:211,1
DA:212,1
DA:213,1
DA:216,1
DA:217,1
DA:218,1
DA:219,1
DA:220,1
DA:221,1
DA:224,1
DA:225,1
DA:226,1
DA:227,1
DA:228,1
DA:229,1
DA:232,1
DA:233,1
DA:234,1
DA:235,1
DA:236,1
DA:237,1
DA:240,1
DA:241,1
DA:242,1
DA:243,1
DA:244,1
DA:245,1
DA:246,1
DA:247,1
DA:248,1
DA:249,1
DA:250,1
DA:253,1
DA:254,1
DA:255,1
DA:256,1
DA:257,1
DA:258,1
DA:261,1
DA:262,1
DA:263,1
DA:264,1
DA:265,1
DA:266,1
DA:269,1
DA:270,1
DA:271,1
DA:272,1
DA:273,1
DA:274,1
BRF:0
BRH:0
LF:143
LH:143
end_of_record
SF:/Users/gugfug/Projects/project_apex/apex_macro/src/tmpl/parse_variable_content.rs
FN:34,_RNvNtNtCsiDy2U3NWibf_10apex_macro4tmpl22parse_variable_content22parse_variable_content
FN:67,_RNvNtNtNtCsiDy2U3NWibf_10apex_macro4tmpl22parse_variable_content5tests16create_char_iter
FN:93,_RNvNtNtNtCsiDy2U3NWibf_10apex_macro4tmpl22parse_variable_content5testss_18test_empty_content
FN:165,_RNvNtNtNtCsiDy2U3NWibf_10apex_macro4tmpl22parse_variable_content5testss_19test_empty_iterator
FN:172,_RNvNtNtNtCsiDy2U3NWibf_10apex_macro4tmpl22parse_variable_content5testss_21test_no_closing_brace
FN:86,_RNvNtNtNtCsiDy2U3NWibf_10apex_macro4tmpl22parse_variable_content5testss_23test_complex_expression
FN:193,_RNvNtNtNtCsiDy2U3NWibf_10apex_macro4tmpl22parse_variable_content5testss_23test_special_characters
FN:203,_RNvNtNtNtCsiDy2U3NWibf_10apex_macro4tmpl22parse_variable_content5testss_23test_unicode_characters
FN:186,_RNvNtNtNtCsiDy2U3NWibf_10apex_macro4tmpl22parse_variable_content5testss_24test_nested_empty_braces
FN:210,_RNvNtNtNtCsiDy2U3NWibf_10apex_macro4tmpl22parse_variable_content5testss_25test_brace_depth_tracking
FN:218,_RNvNtNtNtCsiDy2U3NWibf_10apex_macro4tmpl22parse_variable_content5testss_25test_deeply_nested_braces
FN:79,_RNvNtNtNtCsiDy2U3NWibf_10apex_macro4tmpl22parse_variable_content5testss_25test_dotted_variable_name
FN:72,_RNvNtNtNtCsiDy2U3NWibf_10apex_macro4tmpl22parse_variable_content5testss_25test_simple_variable_name
FN:179,_RNvNtNtNtCsiDy2U3NWibf_10apex_macro4tmpl22parse_variable_content5testss_28test_immediate_closing_brace
FN:151,_RNvNtNtNtCsiDy2U3NWibf_10apex_macro4tmpl22parse_variable_content5testss_28test_multiple_opening_braces
FN:100,_RNvNtNtNtCsiDy2U3NWibf_10apex_macro4tmpl22parse_variable_content5testss_28test_whitespace_only_content
FN:229,_RNvNtNtNtCsiDy2U3NWibf_10apex_macro4tmpl22parse_variable_content5testss_30test_mixed_content_with_braces
FN:121,_RNvNtNtNtCsiDy2U3NWibf_10apex_macro4tmpl22parse_variable_content5testss_31test_single_level_nested_braces
FN:128,_RNvNtNtNtCsiDy2U3NWibf_10apex_macro4tmpl22parse_variable_content5testss_33test_multiple_level_nested_braces
FN:135,_RNvNtNtNtCsiDy2U3NWibf_10apex_macro4tmpl22parse_variable_content5testss_34test_nested_braces_with_whitespace
FN:236,_RNvNtNtNtCsiDy2U3NWibf_10apex_macro4tmpl22parse_variable_content5testss_36test_iterator_position_after_parsing
FN:107,_RNvNtNtNtCsiDy2U3NWibf_10apex_macro4tmpl22parse_variable_content5testss_38test_whitespace_with_tabs_and_newlines
FN:158,_RNvNtNtNtCsiDy2U3NWibf_10apex_macro4tmpl22parse_variable_content5testss_39test_balanced_braces_complex_expression
FN:247,_RNvNtNtNtCsiDy2U3NWibf_10apex_macro4tmpl22parse_variable_content5testss_41test_iterator_position_with_nested_braces
FN:142,_RNvNtNtNtCsiDy2U3NWibf_10apex_macro4tmpl22parse_variable_content5testss_42test_multiple_closing_braces_at_same_level
FN:114,_RNvNtNtNtCsiDy2U3NWibf_10apex_macro4tmpl22parse_variable_content5testss_45test_content_with_leading_trailing_whitespace
FN:34,_RNvNtNtCs2AkumeqEvNE_10apex_macro4tmpl22parse_variable_content22parse_variable_content
FNDA:24,_RNvNtNtCsiDy2U3NWibf_10apex_macro4tmpl22parse_variable_content22parse_variable_content
FNDA:24,_RNvNtNtNtCsiDy2U3NWibf_10apex_macro4tmpl22parse_variable_content5tests16create_char_iter
FNDA:1,_RNvNtNtNtCsiDy2U3NWibf_10apex_macro4tmpl22parse_variable_content5testss_18test_empty_content
FNDA:1,_RNvNtNtNtCsiDy2U3NWibf_10apex_macro4tmpl22parse_variable_content5testss_19test_empty_iterator
FNDA:1,_RNvNtNtNtCsiDy2U3NWibf_10apex_macro4tmpl22parse_variable_content5testss_21test_no_closing_brace
FNDA:1,_RNvNtNtNtCsiDy2U3NWibf_10apex_macro4tmpl22parse_variable_content5testss_23test_complex_expression
FNDA:1,_RNvNtNtNtCsiDy2U3NWibf_10apex_macro4tmpl22parse_variable_content5testss_23test_special_characters
FNDA:1,_RNvNtNtNtCsiDy2U3NWibf_10apex_macro4tmpl22parse_variable_content5testss_23test_unicode_characters
FNDA:1,_RNvNtNtNtCsiDy2U3NWibf_10apex_macro4tmpl22parse_variable_content5testss_24test_nested_empty_braces
FNDA:1,_RNvNtNtNtCsiDy2U3NWibf_10apex_macro4tmpl22parse_variable_content5testss_25test_brace_depth_tracking
FNDA:1,_RNvNtNtNtCsiDy2U3NWibf_10apex_macro4tmpl22parse_variable_content5testss_25test_deeply_nested_braces
FNDA:1,_RNvNtNtNtCsiDy2U3NWibf_10apex_macro4tmpl22parse_variable_content5testss_25test_dotted_variable_name
FNDA:1,_RNvNtNtNtCsiDy2U3NWibf_10apex_macro4tmpl22parse_variable_content5testss_25test_simple_variable_name
FNDA:1,_RNvNtNtNtCsiDy2U3NWibf_10apex_macro4tmpl22parse_variable_content5testss_28test_immediate_closing_brace
FNDA:1,_RNvNtNtNtCsiDy2U3NWibf_10apex_macro4tmpl22parse_variable_content5testss_28test_multiple_opening_braces
FNDA:1,_RNvNtNtNtCsiDy2U3NWibf_10apex_macro4tmpl22parse_variable_content5testss_28test_whitespace_only_content
FNDA:1,_RNvNtNtNtCsiDy2U3NWibf_10apex_macro4tmpl22parse_variable_content5testss_30test_mixed_content_with_braces
FNDA:1,_RNvNtNtNtCsiDy2U3NWibf_10apex_macro4tmpl22parse_variable_content5testss_31test_single_level_nested_braces
FNDA:1,_RNvNtNtNtCsiDy2U3NWibf_10apex_macro4tmpl22parse_variable_content5testss_33test_multiple_level_nested_braces
FNDA:1,_RNvNtNtNtCsiDy2U3NWibf_10apex_macro4tmpl22parse_variable_content5testss_34test_nested_braces_with_whitespace
FNDA:1,_RNvNtNtNtCsiDy2U3NWibf_10apex_macro4tmpl22parse_variable_content5testss_36test_iterator_position_after_parsing
FNDA:1,_RNvNtNtNtCsiDy2U3NWibf_10apex_macro4tmpl22parse_variable_content5testss_38test_whitespace_with_tabs_and_newlines
FNDA:1,_RNvNtNtNtCsiDy2U3NWibf_10apex_macro4tmpl22parse_variable_content5testss_39test_balanced_braces_complex_expression
FNDA:1,_RNvNtNtNtCsiDy2U3NWibf_10apex_macro4tmpl22parse_variable_content5testss_41test_iterator_position_with_nested_braces
FNDA:1,_RNvNtNtNtCsiDy2U3NWibf_10apex_macro4tmpl22parse_variable_content5testss_42test_multiple_closing_braces_at_same_level
FNDA:1,_RNvNtNtNtCsiDy2U3NWibf_10apex_macro4tmpl22parse_variable_content5testss_45test_content_with_leading_trailing_whitespace
FNDA:6,_RNvNtNtCs2AkumeqEvNE_10apex_macro4tmpl22parse_variable_content22parse_variable_content
FNF:26
FNH:26
DA:34,30
DA:35,30
DA:36,30
DA:37,30
DA:38,30
DA:41,589
DA:42,587
DA:43,56
DA:44,56
DA:45,28
DA:46,28
DA:47,28
DA:48,531
DA:49,28
DA:50,503
DA:52,559
DA:55,30
DA:56,5
DA:57,25
DA:58,25
DA:59,25
DA:60,30
DA:67,24
DA:68,24
DA:69,24
DA:72,1
DA:73,1
DA:74,1
DA:75,1
DA:76,1
DA:79,1
DA:80,1
DA:81,1
DA:82,1
DA:83,1
DA:86,1
DA:87,1
DA:88,1
DA:89,1
DA:90,1
DA:93,1
DA:94,1
DA:95,1
DA:96,1
DA:97,1
DA:100,1
DA:101,1
DA:102,1
DA:103,1
DA:104,1
DA:107,1
DA:108,1
DA:109,1
DA:110,1
DA:111,1
DA:114,1
DA:115,1
DA:116,1
DA:117,1
DA:118,1
DA:121,1
DA:122,1
DA:123,1
DA:124,1
DA:125,1
DA:128,1
DA:129,1
DA:130,1
DA:131,1
DA:132,1
DA:135,1
DA:136,1
DA:137,1
DA:138,1
DA:139,1
DA:142,1
DA:143,1
DA:144,1
DA:145,1
DA:147,1
DA:148,1
DA:151,1
DA:152,1
DA:153,1
DA:154,1
DA:155,1
DA:158,1
DA:159,1
DA:160,1
DA:161,1
DA:162,1
DA:165,1
DA:166,1
DA:167,1
DA:168,1
DA:169,1
DA:172,1
DA:173,1
DA:174,1
DA:175,1
DA:176,1
DA:179,1
DA:180,1
DA:181,1
DA:182,1
DA:183,1
DA:186,1
DA:187,1
DA:188,1
DA:189,1
DA:190,1
DA:193,1
DA:194,1
DA:195,1
DA:196,1
DA:197,1
DA:198,1
DA:199,1
DA:200,1
DA:203,1
DA:204,1
DA:205,1
DA:206,1
DA:207,1
DA:210,1
DA:211,1
DA:212,1
DA:213,1
DA:214,1
DA:215,1
DA:218,1
DA:219,1
DA:220,1
DA:221,1
DA:222,1
DA:223,1
DA:224,1
DA:225,1
DA:226,1
DA:229,1
DA:230,1
DA:231,1
DA:232,1
DA:233,1
DA:236,1
DA:237,1
DA:238,1
DA:239,1
DA:242,1
DA:243,1
DA:244,1
DA:247,1
DA:248,1
DA:249,1
DA:250,1
DA:253,1
DA:254,1
DA:255,1
BRF:0
BRH:0
LF:158
LH:158
end_of_record