SF:/Users/gugfug/Projects/project_apex/apex/src/lib.rs
FN:34,_RINvMCs3tsCzUHBbyI_4apexNtB3_4Html3newpEB3_
FN:129,_RINvMs2_Cs3tsCzUHBbyI_4apexINtB6_12LoaderResultpE12server_errorpEB6_
FN:139,_RINvMs2_Cs3tsCzUHBbyI_4apexINtB6_12LoaderResultpE13into_responsepEB6_
FN:119,_RINvMs2_Cs3tsCzUHBbyI_4apexINtB6_12LoaderResultpE8redirectpEB6_
FN:184,_RINvMs3_Cs3tsCzUHBbyI_4apexNtB6_5Route3newpEB6_
FN:207,_RINvMs4_Cs3tsCzUHBbyI_4apexNtB6_10ApexRouter3getpppEB6_
FN:237,_RINvMs4_Cs3tsCzUHBbyI_4apexNtB6_10ApexRouter3putpppEB6_
FN:222,_RINvMs4_Cs3tsCzUHBbyI_4apexNtB6_10ApexRouter4postpppEB6_
FN:267,_RINvMs4_Cs3tsCzUHBbyI_4apexNtB6_10ApexRouter5routepppEB6_
FN:252,_RINvMs4_Cs3tsCzUHBbyI_4apexNtB6_10ApexRouter6deletepppEB6_
FN:330,_RINvMs7_Cs3tsCzUHBbyI_4apexINtB6_4ApexpE7contextpEB6_
FN:213,_RNCINvMs4_Cs3tsCzUHBbyI_4apexNtB8_10ApexRouter3getpppE0B8_
FN:243,_RNCINvMs4_Cs3tsCzUHBbyI_4apexNtB8_10ApexRouter3putpppE0B8_
FN:228,_RNCINvMs4_Cs3tsCzUHBbyI_4apexNtB8_10ApexRouter4postpppE0B8_
FN:273,_RNCINvMs4_Cs3tsCzUHBbyI_4apexNtB8_10ApexRouter5routepppE0B8_
FN:258,_RNCINvMs4_Cs3tsCzUHBbyI_4apexNtB8_10ApexRouter6deletepppE0B8_
FN:383,_RNCNCNCNCNvMs7_Cs3tsCzUHBbyI_4apexINtBd_4ApexpE5serve0000Bd_
FN:381,_RNCNCNCNvMs7_Cs3tsCzUHBbyI_4apexINtBb_4ApexpE5serve000Bb_
FN:380,_RNCNCNvMs7_Cs3tsCzUHBbyI_4apexINtB9_4ApexpE5serve00B9_
FN:282,_RNCNvMs4_Cs3tsCzUHBbyI_4apexNtB7_10ApexRouter6handle0B7_
FN:354,_RNCNvMs7_Cs3tsCzUHBbyI_4apexINtB7_4ApexpE14handle_request0B7_
FN:368,_RNCNvMs7_Cs3tsCzUHBbyI_4apexINtB7_4ApexpE5serve0B7_
FN:48,_RNvMCs3tsCzUHBbyI_4apexNtB2_4Html11into_string
FN:41,_RNvMCs3tsCzUHBbyI_4apexNtB2_4Html5empty
FN:53,_RNvMCs3tsCzUHBbyI_4apexNtB2_4Html6as_str
FN:114,_RNvMs2_Cs3tsCzUHBbyI_4apexINtB5_12LoaderResultpE2okB5_
FN:134,_RNvMs2_Cs3tsCzUHBbyI_4apexINtB5_12LoaderResultpE8responseB5_
FN:124,_RNvMs2_Cs3tsCzUHBbyI_4apexINtB5_12LoaderResultpE9not_foundB5_
FN:200,_RNvMs4_Cs3tsCzUHBbyI_4apexNtB5_10ApexRouter3new
FN:282,_RNvMs4_Cs3tsCzUHBbyI_4apexNtB5_10ApexRouter6handle
FN:298,_RNvMs4_Cs3tsCzUHBbyI_4apexNtB5_10ApexRouter6routes
FN:317,_RNvMs6_Cs3tsCzUHBbyI_4apexNtB5_4Apex3new
FN:349,_RNvMs7_Cs3tsCzUHBbyI_4apexINtB5_4ApexpE10get_routerB5_
FN:344,_RNvMs7_Cs3tsCzUHBbyI_4apexINtB5_4ApexpE11get_contextB5_
FN:354,_RNvMs7_Cs3tsCzUHBbyI_4apexINtB5_4ApexpE14handle_requestB5_
FN:365,_RNvMs7_Cs3tsCzUHBbyI_4apexINtB5_4ApexpE5serveB5_
FN:338,_RNvMs7_Cs3tsCzUHBbyI_4apexINtB5_4ApexpE6routerB5_
FN:65,_RNvXs0_Cs3tsCzUHBbyI_4apexNtB5_4HtmlINtNtCslNfmTnNkGed_4core7convert4FromReE4from
FN:71,_RNvXs1_Cs3tsCzUHBbyI_4apexNtB5_4HtmlNtNtCslNfmTnNkGed_4core3fmt7Display3fmt
FN:304,_RNvXs5_Cs3tsCzUHBbyI_4apexNtB5_10ApexRouterNtNtCslNfmTnNkGed_4core7default7Default7default
FN:401,_RNvXs8_Cs3tsCzUHBbyI_4apexNtB5_4ApexNtNtCslNfmTnNkGed_4core7default7Default7default
FN:59,_RNvXs_Cs3tsCzUHBbyI_4apexNtB4_4HtmlINtNtCslNfmTnNkGed_4core7convert4FromNtNtCsdEVMfzfmdlp_5alloc6string6StringE4from
FNDA:0,_RINvMCs3tsCzUHBbyI_4apexNtB3_4Html3newpEB3_
FNDA:0,_RINvMs2_Cs3tsCzUHBbyI_4apexINtB6_12LoaderResultpE12server_errorpEB6_
FNDA:0,_RINvMs2_Cs3tsCzUHBbyI_4apexINtB6_12LoaderResultpE13into_responsepEB6_
FNDA:0,_RINvMs2_Cs3tsCzUHBbyI_4apexINtB6_12LoaderResultpE8redirectpEB6_
FNDA:0,_RINvMs3_Cs3tsCzUHBbyI_4apexNtB6_5Route3newpEB6_
FNDA:0,_RINvMs4_Cs3tsCzUHBbyI_4apexNtB6_10ApexRouter3getpppEB6_
FNDA:0,_RINvMs4_Cs3tsCzUHBbyI_4apexNtB6_10ApexRouter3putpppEB6_
FNDA:0,_RINvMs4_Cs3tsCzUHBbyI_4apexNtB6_10ApexRouter4postpppEB6_
FNDA:0,_RINvMs4_Cs3tsCzUHBbyI_4apexNtB6_10ApexRouter5routepppEB6_
FNDA:0,_RINvMs4_Cs3tsCzUHBbyI_4apexNtB6_10ApexRouter6deletepppEB6_
FNDA:0,_RINvMs7_Cs3tsCzUHBbyI_4apexINtB6_4ApexpE7contextpEB6_
FNDA:0,_RNCINvMs4_Cs3tsCzUHBbyI_4apexNtB8_10ApexRouter3getpppE0B8_
FNDA:0,_RNCINvMs4_Cs3tsCzUHBbyI_4apexNtB8_10ApexRouter3putpppE0B8_
FNDA:0,_RNCINvMs4_Cs3tsCzUHBbyI_4apexNtB8_10ApexRouter4postpppE0B8_
FNDA:0,_RNCINvMs4_Cs3tsCzUHBbyI_4apexNtB8_10ApexRouter5routepppE0B8_
FNDA:0,_RNCINvMs4_Cs3tsCzUHBbyI_4apexNtB8_10ApexRouter6deletepppE0B8_
FNDA:0,_RNCNCNCNCNvMs7_Cs3tsCzUHBbyI_4apexINtBd_4ApexpE5serve0000Bd_
FNDA:0,_RNCNCNCNvMs7_Cs3tsCzUHBbyI_4apexINtBb_4ApexpE5serve000Bb_
FNDA:0,_RNCNCNvMs7_Cs3tsCzUHBbyI_4apexINtB9_4ApexpE5serve00B9_
FNDA:0,_RNCNvMs4_Cs3tsCzUHBbyI_4apexNtB7_10ApexRouter6handle0B7_
FNDA:0,_RNCNvMs7_Cs3tsCzUHBbyI_4apexINtB7_4ApexpE14handle_request0B7_
FNDA:0,_RNCNvMs7_Cs3tsCzUHBbyI_4apexINtB7_4ApexpE5serve0B7_
FNDA:0,_RNvMCs3tsCzUHBbyI_4apexNtB2_4Html11into_string
FNDA:0,_RNvMCs3tsCzUHBbyI_4apexNtB2_4Html5empty
FNDA:0,_RNvMCs3tsCzUHBbyI_4apexNtB2_4Html6as_str
FNDA:0,_RNvMs2_Cs3tsCzUHBbyI_4apexINtB5_12LoaderResultpE2okB5_
FNDA:0,_RNvMs2_Cs3tsCzUHBbyI_4apexINtB5_12LoaderResultpE8responseB5_
FNDA:0,_RNvMs2_Cs3tsCzUHBbyI_4apexINtB5_12LoaderResultpE9not_foundB5_
FNDA:0,_RNvMs4_Cs3tsCzUHBbyI_4apexNtB5_10ApexRouter3new
FNDA:0,_RNvMs4_Cs3tsCzUHBbyI_4apexNtB5_10ApexRouter6handle
FNDA:0,_RNvMs4_Cs3tsCzUHBbyI_4apexNtB5_10ApexRouter6routes
FNDA:0,_RNvMs6_Cs3tsCzUHBbyI_4apexNtB5_4Apex3new
FNDA:0,_RNvMs7_Cs3tsCzUHBbyI_4apexINtB5_4ApexpE10get_routerB5_
FNDA:0,_RNvMs7_Cs3tsCzUHBbyI_4apexINtB5_4ApexpE11get_contextB5_
FNDA:0,_RNvMs7_Cs3tsCzUHBbyI_4apexINtB5_4ApexpE14handle_requestB5_
FNDA:0,_RNvMs7_Cs3tsCzUHBbyI_4apexINtB5_4ApexpE5serveB5_
FNDA:0,_RNvMs7_Cs3tsCzUHBbyI_4apexINtB5_4ApexpE6routerB5_
FNDA:0,_RNvXs0_Cs3tsCzUHBbyI_4apexNtB5_4HtmlINtNtCslNfmTnNkGed_4core7convert4FromReE4from
FNDA:0,_RNvXs1_Cs3tsCzUHBbyI_4apexNtB5_4HtmlNtNtCslNfmTnNkGed_4core3fmt7Display3fmt
FNDA:0,_RNvXs5_Cs3tsCzUHBbyI_4apexNtB5_10ApexRouterNtNtCslNfmTnNkGed_4core7default7Default7default
FNDA:0,_RNvXs8_Cs3tsCzUHBbyI_4apexNtB5_4ApexNtNtCslNfmTnNkGed_4core7default7Default7default
FNDA:0,_RNvXs_Cs3tsCzUHBbyI_4apexNtB4_4HtmlINtNtCslNfmTnNkGed_4core7convert4FromNtNtCsdEVMfzfmdlp_5alloc6string6StringE4from
FNF:42
FNH:0
DA:34,0
DA:35,0
DA:36,0
DA:37,0
DA:38,0
DA:41,0
DA:42,0
DA:43,0
DA:44,0
DA:45,0
DA:48,0
DA:49,0
DA:50,0
DA:53,0
DA:54,0
DA:55,0
DA:59,0
DA:60,0
DA:61,0
DA:65,0
DA:66,0
DA:67,0
DA:71,0
DA:72,0
DA:73,0
DA:114,0
DA:115,0
DA:116,0
DA:119,0
DA:120,0
DA:121,0
DA:124,0
DA:125,0
DA:126,0
DA:129,0
DA:130,0
DA:131,0
DA:134,0
DA:135,0
DA:136,0
DA:139,0
DA:140,0
DA:141,0
DA:142,0
DA:143,0
DA:144,0
DA:145,0
DA:146,0
DA:147,0
DA:148,0
DA:149,0
DA:150,0
DA:152,0
DA:153,0
DA:154,0
DA:155,0
DA:156,0
DA:157,0
DA:158,0
DA:159,0
DA:160,0
DA:161,0
DA:162,0
DA:163,0
DA:164,0
DA:165,0
DA:166,0
DA:167,0
DA:168,0
DA:169,0
DA:170,0
DA:172,0
DA:184,0
DA:185,0
DA:186,0
DA:187,0
DA:188,0
DA:189,0
DA:200,0
DA:201,0
DA:202,0
DA:203,0
DA:204,0
DA:207,0
DA:208,0
DA:209,0
DA:210,0
DA:211,0
DA:212,0
DA:213,0
DA:214,0
DA:215,0
DA:216,0
DA:217,0
DA:218,0
DA:219,0
DA:222,0
DA:223,0
DA:224,0
DA:225,0
DA:226,0
DA:227,0
DA:228,0
DA:229,0
DA:230,0
DA:231,0
DA:232,0
DA:233,0
DA:234,0
DA:237,0
DA:238,0
DA:239,0
DA:240,0
DA:241,0
DA:242,0
DA:243,0
DA:244,0
DA:245,0
DA:246,0
DA:247,0
DA:248,0
DA:249,0
DA:252,0
DA:253,0
DA:254,0
DA:255,0
DA:256,0
DA:257,0
DA:258,0
DA:259,0
DA:260,0
DA:261,0
DA:262,0
DA:263,0
DA:264,0
DA:267,0
DA:268,0
DA:269,0
DA:270,0
DA:271,0
DA:272,0
DA:273,0
DA:274,0
DA:275,0
DA:276,0
DA:277,0
DA:278,0
DA:279,0
DA:282,0
DA:283,0
DA:284,0
DA:285,0
DA:286,0
DA:289,0
DA:290,0
DA:291,0
DA:292,0
DA:295,0
DA:298,0
DA:299,0
DA:300,0
DA:304,0
DA:305,0
DA:306,0
DA:317,0
DA:318,0
DA:319,0
DA:320,0
DA:321,0
DA:322,0
DA:330,0
DA:331,0
DA:332,0
DA:333,0
DA:334,0
DA:335,0
DA:338,0
DA:339,0
DA:340,0
DA:341,0
DA:344,0
DA:345,0
DA:346,0
DA:349,0
DA:350,0
DA:351,0
DA:354,0
DA:355,0
DA:356,0
DA:357,0
DA:358,0
DA:359,0
DA:360,0
DA:362,0
DA:365,0
DA:366,0
DA:367,0
DA:368,0
DA:369,0
DA:370,0
DA:371,0
DA:372,0
DA:373,0
DA:376,0
DA:377,0
DA:378,0
DA:379,0
DA:380,0
DA:381,0
DA:382,0
DA:383,0
DA:384,0
DA:385,0
DA:386,0
DA:387,0
DA:388,0
DA:389,0
DA:390,0
DA:392,0
DA:393,0
DA:394,0
DA:395,0
DA:397,0
DA:401,0
DA:402,0
DA:403,0
BRF:0
BRH:0
LF:243
LH:0
end_of_record
SF:/Users/gugfug/Projects/project_apex/apex_macro/src/component.rs
FN:164,_RNCNvNtCsbyAjnUhfnSx_10apex_macro9component18generate_component0B5_
FN:168,_RNCNvNtCsbyAjnUhfnSx_10apex_macro9component18generate_components0_0B5_
FN:165,_RNCNvNtCsbyAjnUhfnSx_10apex_macro9component18generate_components_0B5_
FN:43,_RNCNvNtCsbyAjnUhfnSx_10apex_macro9component20parse_component_args0B5_
FN:44,_RNCNvNtCsbyAjnUhfnSx_10apex_macro9component20parse_component_argss_0B5_
FN:239,_RNCNvNtCsbyAjnUhfnSx_10apex_macro9component32generate_component_field_setters0B5_
FN:61,_RNvNtCsbyAjnUhfnSx_10apex_macro9component18generate_component
FN:13,_RNvNtCsbyAjnUhfnSx_10apex_macro9component20parse_component_args
FN:234,_RNvNtCsbyAjnUhfnSx_10apex_macro9component32generate_component_field_setters
FN:61,_RNvNtCsceWIjSUj9Mi_10apex_macro9component18generate_component
FN:13,_RNvNtCsceWIjSUj9Mi_10apex_macro9component20parse_component_args
FN:234,_RNvNtCsceWIjSUj9Mi_10apex_macro9component32generate_component_field_setters
FN:164,_RNCNvNtCsceWIjSUj9Mi_10apex_macro9component18generate_component0B5_
FN:168,_RNCNvNtCsceWIjSUj9Mi_10apex_macro9component18generate_components0_0B5_
FN:165,_RNCNvNtCsceWIjSUj9Mi_10apex_macro9component18generate_components_0B5_
FN:43,_RNCNvNtCsceWIjSUj9Mi_10apex_macro9component20parse_component_args0B5_
FN:44,_RNCNvNtCsceWIjSUj9Mi_10apex_macro9component20parse_component_argss_0B5_
FN:239,_RNCNvNtCsceWIjSUj9Mi_10apex_macro9component32generate_component_field_setters0B5_
FNDA:0,_RNCNvNtCsbyAjnUhfnSx_10apex_macro9component18generate_component0B5_
FNDA:0,_RNCNvNtCsbyAjnUhfnSx_10apex_macro9component18generate_components0_0B5_
FNDA:0,_RNCNvNtCsbyAjnUhfnSx_10apex_macro9component18generate_components_0B5_
FNDA:0,_RNCNvNtCsbyAjnUhfnSx_10apex_macro9component20parse_component_args0B5_
FNDA:0,_RNCNvNtCsbyAjnUhfnSx_10apex_macro9component20parse_component_argss_0B5_
FNDA:0,_RNCNvNtCsbyAjnUhfnSx_10apex_macro9component32generate_component_field_setters0B5_
FNDA:0,_RNvNtCsbyAjnUhfnSx_10apex_macro9component18generate_component
FNDA:0,_RNvNtCsbyAjnUhfnSx_10apex_macro9component20parse_component_args
FNDA:0,_RNvNtCsbyAjnUhfnSx_10apex_macro9component32generate_component_field_setters
FNDA:2,_RNvNtCsceWIjSUj9Mi_10apex_macro9component18generate_component
FNDA:2,_RNvNtCsceWIjSUj9Mi_10apex_macro9component20parse_component_args
FNDA:0,_RNvNtCsceWIjSUj9Mi_10apex_macro9component32generate_component_field_setters
FNDA:0,_RNCNvNtCsceWIjSUj9Mi_10apex_macro9component18generate_component0B5_
FNDA:0,_RNCNvNtCsceWIjSUj9Mi_10apex_macro9component18generate_components0_0B5_
FNDA:0,_RNCNvNtCsceWIjSUj9Mi_10apex_macro9component18generate_components_0B5_
FNDA:1,_RNCNvNtCsceWIjSUj9Mi_10apex_macro9component20parse_component_args0B5_
FNDA:1,_RNCNvNtCsceWIjSUj9Mi_10apex_macro9component20parse_component_argss_0B5_
FNDA:0,_RNCNvNtCsceWIjSUj9Mi_10apex_macro9component32generate_component_field_setters0B5_
FNF:9
FNH:4
DA:13,2
DA:14,2
DA:15,2
DA:16,2
DA:17,2
DA:18,2
DA:19,2
DA:22,2
DA:23,2
DA:24,2
DA:25,2
DA:26,2
DA:27,2
DA:28,2
DA:29,2
DA:30,0
DA:31,0
DA:34,2
DA:35,1
DA:36,1
DA:37,1
DA:38,1
DA:39,1
DA:40,1
DA:41,1
DA:42,1
DA:43,1
DA:44,1
DA:45,1
DA:46,1
DA:47,0
DA:48,1
DA:50,2
DA:51,0
DA:52,0
DA:53,0
DA:54,0
DA:55,2
DA:56,2
DA:57,2
DA:58,2
DA:61,2
DA:62,2
DA:63,2
DA:64,2
DA:65,2
DA:66,2
DA:69,2
DA:70,2
DA:71,0
DA:74,2
DA:75,2
DA:76,2
DA:77,2
DA:78,2
DA:79,2
DA:80,2
DA:81,2
DA:82,2
DA:83,2
DA:84,2
DA:85,2
DA:86,2
DA:87,2
DA:88,2
DA:89,2
DA:90,2
DA:91,2
DA:92,2
DA:93,2
DA:94,2
DA:95,2
DA:96,2
DA:97,2
DA:98,2
DA:99,2
DA:100,2
DA:101,2
DA:102,2
DA:103,2
DA:104,2
DA:106,0
DA:107,0
DA:108,0
DA:109,0
DA:110,0
DA:114,0
DA:115,0
DA:116,0
DA:117,0
DA:122,0
DA:123,0
DA:124,0
DA:126,0
DA:127,0
DA:128,0
DA:129,0
DA:130,0
DA:131,0
DA:132,0
DA:133,0
DA:135,0
DA:136,0
DA:138,0
DA:139,0
DA:140,0
DA:141,0
DA:142,0
DA:143,0
DA:144,0
DA:145,0
DA:146,0
DA:147,0
DA:150,0
DA:151,0
DA:152,0
DA:153,0
DA:154,0
DA:155,0
DA:156,0
DA:157,0
DA:158,0
DA:159,0
DA:160,0
DA:164,0
DA:165,0
DA:166,0
DA:167,0
DA:168,0
DA:169,0
DA:170,0
DA:172,0
DA:174,0
DA:175,0
DA:176,0
DA:177,0
DA:178,0
DA:179,0
DA:180,0
DA:182,0
DA:183,0
DA:184,0
DA:185,0
DA:186,0
DA:187,0
DA:188,0
DA:189,0
DA:190,0
DA:191,0
DA:192,0
DA:193,0
DA:194,0
DA:195,0
DA:196,0
DA:197,0
DA:198,0
DA:199,0
DA:200,0
DA:201,0
DA:202,0
DA:203,0
DA:204,0
DA:205,0
DA:206,0
DA:207,0
DA:208,0
DA:209,0
DA:210,0
DA:211,0
DA:212,0
DA:213,0
DA:214,0
DA:215,0
DA:216,0
DA:217,0
DA:218,0
DA:219,0
DA:220,0
DA:221,0
DA:222,0
DA:223,0
DA:224,0
DA:225,0
DA:226,0
DA:227,0
DA:228,0
DA:230,0
DA:231,2
DA:234,0
DA:235,0
DA:236,0
DA:237,0
DA:238,0
DA:239,0
DA:240,0
DA:241,0
DA:242,0
DA:243,0
DA:244,0
DA:245,0
DA:246,0
DA:247,0
DA:248,0
DA:249,0
DA:250,0
DA:251,0
DA:252,0
DA:253,0
DA:254,0
DA:255,0
DA:256,0
DA:257,0
DA:258,0
DA:261,0
DA:262,0
DA:263,0
DA:264,0
DA:265,0
DA:266,0
DA:267,0
DA:268,0
DA:270,0
DA:271,0
DA:272,0
BRF:0
BRH:0
LF:232
LH:76
end_of_record
SF:/Users/gugfug/Projects/project_apex/apex_macro/src/lib.rs
FN:101,_RNvCsbyAjnUhfnSx_10apex_macro4tmpl
FN:67,_RNvCsbyAjnUhfnSx_10apex_macro5route
FN:36,_RNvCsbyAjnUhfnSx_10apex_macro9component
FN:101,_RNvCsceWIjSUj9Mi_10apex_macro4tmpl
FN:67,_RNvCsceWIjSUj9Mi_10apex_macro5route
FN:36,_RNvCsceWIjSUj9Mi_10apex_macro9component
FNDA:0,_RNvCsbyAjnUhfnSx_10apex_macro4tmpl
FNDA:0,_RNvCsbyAjnUhfnSx_10apex_macro5route
FNDA:0,_RNvCsbyAjnUhfnSx_10apex_macro9component
FNDA:2,_RNvCsceWIjSUj9Mi_10apex_macro4tmpl
FNDA:1,_RNvCsceWIjSUj9Mi_10apex_macro5route
FNDA:2,_RNvCsceWIjSUj9Mi_10apex_macro9component
FNF:3
FNH:3
DA:36,2
DA:37,2
DA:40,2
DA:41,2
DA:42,0
DA:46,2
DA:47,2
DA:48,0
DA:50,2
DA:67,1
DA:68,1
DA:71,1
DA:72,1
DA:73,0
DA:77,1
DA:78,1
DA:79,0
DA:81,1
DA:101,2
DA:102,2
DA:103,2
DA:104,0
DA:106,2
BRF:0
BRH:0
LF:23
LH:18
end_of_record
SF:/Users/gugfug/Projects/project_apex/apex_macro/src/route.rs
FN:53,_RNvNtCsbyAjnUhfnSx_10apex_macro5route14generate_route
FN:13,_RNvNtCsbyAjnUhfnSx_10apex_macro5route16parse_route_args
FN:53,_RNvNtCsceWIjSUj9Mi_10apex_macro5route14generate_route
FN:13,_RNvNtCsceWIjSUj9Mi_10apex_macro5route16parse_route_args
FNDA:0,_RNvNtCsbyAjnUhfnSx_10apex_macro5route14generate_route
FNDA:0,_RNvNtCsbyAjnUhfnSx_10apex_macro5route16parse_route_args
FNDA:1,_RNvNtCsceWIjSUj9Mi_10apex_macro5route14generate_route
FNDA:1,_RNvNtCsceWIjSUj9Mi_10apex_macro5route16parse_route_args
FNF:2
FNH:2
DA:13,1
DA:14,1
DA:15,1
DA:16,1
DA:17,1
DA:18,1
DA:19,1
DA:22,1
DA:23,1
DA:24,1
DA:25,1
DA:26,1
DA:27,1
DA:28,1
DA:29,1
DA:30,0
DA:31,0
DA:34,1
DA:35,1
DA:36,1
DA:37,1
DA:38,1
DA:39,1
DA:40,1
DA:42,1
DA:43,0
DA:44,0
DA:45,0
DA:46,0
DA:47,1
DA:48,1
DA:49,1
DA:50,1
DA:53,1
DA:54,1
DA:55,1
DA:56,1
DA:57,1
DA:58,1
DA:61,1
DA:62,1
DA:63,1
DA:65,1
DA:66,1
DA:67,1
DA:68,1
DA:69,1
DA:70,1
DA:71,1
DA:72,1
DA:73,1
DA:74,1
DA:75,1
DA:76,1
DA:77,1
DA:78,1
DA:79,1
DA:80,1
DA:81,1
DA:82,1
DA:83,1
DA:84,1
DA:85,1
DA:86,1
DA:87,1
DA:88,1
DA:91,0
DA:92,0
DA:93,0
DA:94,0
DA:95,0
DA:96,0
DA:97,0
DA:98,0
DA:99,0
DA:100,0
DA:101,0
DA:102,0
DA:103,0
DA:104,0
DA:105,0
DA:106,0
DA:107,0
DA:108,0
DA:109,0
DA:110,0
DA:111,0
DA:115,1
DA:116,1
BRF:0
BRH:0
LF:89
LH:62
end_of_record
SF:/Users/gugfug/Projects/project_apex/apex_macro/src/tmpl/generate_html_opening_tag_code.rs
FN:30,_RNCNvNtNtCsbyAjnUhfnSx_10apex_macro4tmpl30generate_html_opening_tag_code30generate_html_opening_tag_code0B7_
FN:67,_RNvNtNtNtCsbyAjnUhfnSx_10apex_macro4tmpl30generate_html_opening_tag_code5testss_52test_generate_html_opening_tag_code_empty_attributes
FN:156,_RNvNtNtNtCsbyAjnUhfnSx_10apex_macro4tmpl30generate_html_opening_tag_code5testss_53test_generate_html_opening_tag_code_special_html_tags
FN:239,_RNvNtNtNtCsbyAjnUhfnSx_10apex_macro4tmpl30generate_html_opening_tag_code5testss_54test_generate_html_opening_tag_code_complex_expression
FN:201,_RNvNtNtNtCsbyAjnUhfnSx_10apex_macro4tmpl30generate_html_opening_tag_code5testss_54test_generate_html_opening_tag_code_invalid_expression
FN:184,_RNvNtNtNtCsbyAjnUhfnSx_10apex_macro4tmpl30generate_html_opening_tag_code5testss_57test_generate_html_opening_tag_code_invalid_variable_name
FN:309,_RNvNtNtNtCsbyAjnUhfnSx_10apex_macro4tmpl30generate_html_opening_tag_code5testss_57test_generate_html_opening_tag_code_with_quotes_in_values
FN:218,_RNvNtNtNtCsbyAjnUhfnSx_10apex_macro4tmpl30generate_html_opening_tag_code5testss_58test_generate_html_opening_tag_code_empty_attribute_values
FN:281,_RNvNtNtNtCsbyAjnUhfnSx_10apex_macro4tmpl30generate_html_opening_tag_code5testss_58test_generate_html_opening_tag_code_with_helper_attributes
FN:259,_RNvNtNtNtCsbyAjnUhfnSx_10apex_macro4tmpl30generate_html_opening_tag_code5testss_59test_generate_html_opening_tag_code_boolean_like_attributes
FN:78,_RNvNtNtNtCsbyAjnUhfnSx_10apex_macro4tmpl30generate_html_opening_tag_code5testss_60test_generate_html_opening_tag_code_single_literal_attribute
FN:127,_RNvNtNtNtCsbyAjnUhfnSx_10apex_macro4tmpl30generate_html_opening_tag_code5testss_61test_generate_html_opening_tag_code_multiple_mixed_attributes
FN:95,_RNvNtNtNtCsbyAjnUhfnSx_10apex_macro4tmpl30generate_html_opening_tag_code5testss_61test_generate_html_opening_tag_code_single_variable_attribute
FN:111,_RNvNtNtNtCsbyAjnUhfnSx_10apex_macro4tmpl30generate_html_opening_tag_code5testss_63test_generate_html_opening_tag_code_single_expression_attribute
FN:168,_RNvNtNtNtCsbyAjnUhfnSx_10apex_macro4tmpl30generate_html_opening_tag_code5testss_69test_generate_html_opening_tag_code_attribute_with_special_characters
FN:21,_RNvNtNtCsbyAjnUhfnSx_10apex_macro4tmpl30generate_html_opening_tag_code30generate_html_opening_tag_code
FN:21,_RNvNtNtCsceWIjSUj9Mi_10apex_macro4tmpl30generate_html_opening_tag_code30generate_html_opening_tag_code
FN:30,_RNCNvNtNtCsceWIjSUj9Mi_10apex_macro4tmpl30generate_html_opening_tag_code30generate_html_opening_tag_code0B7_
FNDA:18,_RNCNvNtNtCsbyAjnUhfnSx_10apex_macro4tmpl30generate_html_opening_tag_code30generate_html_opening_tag_code0B7_
FNDA:1,_RNvNtNtNtCsbyAjnUhfnSx_10apex_macro4tmpl30generate_html_opening_tag_code5testss_52test_generate_html_opening_tag_code_empty_attributes
FNDA:1,_RNvNtNtNtCsbyAjnUhfnSx_10apex_macro4tmpl30generate_html_opening_tag_code5testss_53test_generate_html_opening_tag_code_special_html_tags
FNDA:1,_RNvNtNtNtCsbyAjnUhfnSx_10apex_macro4tmpl30generate_html_opening_tag_code5testss_54test_generate_html_opening_tag_code_complex_expression
FNDA:1,_RNvNtNtNtCsbyAjnUhfnSx_10apex_macro4tmpl30generate_html_opening_tag_code5testss_54test_generate_html_opening_tag_code_invalid_expression
FNDA:1,_RNvNtNtNtCsbyAjnUhfnSx_10apex_macro4tmpl30generate_html_opening_tag_code5testss_57test_generate_html_opening_tag_code_invalid_variable_name
FNDA:1,_RNvNtNtNtCsbyAjnUhfnSx_10apex_macro4tmpl30generate_html_opening_tag_code5testss_57test_generate_html_opening_tag_code_with_quotes_in_values
FNDA:1,_RNvNtNtNtCsbyAjnUhfnSx_10apex_macro4tmpl30generate_html_opening_tag_code5testss_58test_generate_html_opening_tag_code_empty_attribute_values
FNDA:1,_RNvNtNtNtCsbyAjnUhfnSx_10apex_macro4tmpl30generate_html_opening_tag_code5testss_58test_generate_html_opening_tag_code_with_helper_attributes
FNDA:1,_RNvNtNtNtCsbyAjnUhfnSx_10apex_macro4tmpl30generate_html_opening_tag_code5testss_59test_generate_html_opening_tag_code_boolean_like_attributes
FNDA:1,_RNvNtNtNtCsbyAjnUhfnSx_10apex_macro4tmpl30generate_html_opening_tag_code5testss_60test_generate_html_opening_tag_code_single_literal_attribute
FNDA:1,_RNvNtNtNtCsbyAjnUhfnSx_10apex_macro4tmpl30generate_html_opening_tag_code5testss_61test_generate_html_opening_tag_code_multiple_mixed_attributes
FNDA:1,_RNvNtNtNtCsbyAjnUhfnSx_10apex_macro4tmpl30generate_html_opening_tag_code5testss_61test_generate_html_opening_tag_code_single_variable_attribute
FNDA:1,_RNvNtNtNtCsbyAjnUhfnSx_10apex_macro4tmpl30generate_html_opening_tag_code5testss_63test_generate_html_opening_tag_code_single_expression_attribute
FNDA:1,_RNvNtNtNtCsbyAjnUhfnSx_10apex_macro4tmpl30generate_html_opening_tag_code5testss_69test_generate_html_opening_tag_code_attribute_with_special_characters
FNDA:18,_RNvNtNtCsbyAjnUhfnSx_10apex_macro4tmpl30generate_html_opening_tag_code30generate_html_opening_tag_code
FNDA:11,_RNvNtNtCsceWIjSUj9Mi_10apex_macro4tmpl30generate_html_opening_tag_code30generate_html_opening_tag_code
FNDA:2,_RNCNvNtNtCsceWIjSUj9Mi_10apex_macro4tmpl30generate_html_opening_tag_code30generate_html_opening_tag_code0B7_
FNF:16
FNH:16
DA:21,29
DA:22,29
DA:23,29
DA:24,29
DA:25,29
DA:26,15
DA:28,14
DA:29,14
DA:30,20
DA:31,8
DA:32,8
DA:34,6
DA:35,6
DA:36,5
DA:38,1
DA:41,6
DA:42,6
DA:43,6
DA:45,0
DA:48,20
DA:49,14
DA:50,14
DA:51,14
DA:52,14
DA:53,14
DA:54,14
DA:55,14
DA:56,14
DA:58,29
DA:67,1
DA:68,1
DA:69,1
DA:70,1
DA:71,1
DA:72,1
DA:73,1
DA:74,1
DA:75,1
DA:78,1
DA:79,1
DA:80,1
DA:81,1
DA:82,1
DA:83,1
DA:84,1
DA:85,1
DA:86,1
DA:87,1
DA:88,1
DA:89,1
DA:90,1
DA:91,1
DA:92,1
DA:95,1
DA:96,1
DA:97,1
DA:98,1
DA:99,1
DA:100,1
DA:101,1
DA:102,1
DA:103,1
DA:104,1
DA:105,1
DA:106,1
DA:107,1
DA:108,1
DA:111,1
DA:112,1
DA:113,1
DA:114,1
DA:115,1
DA:116,1
DA:117,1
DA:118,1
DA:119,1
DA:120,1
DA:121,1
DA:122,1
DA:123,1
DA:124,1
DA:127,1
DA:128,1
DA:129,1
DA:130,1
DA:131,1
DA:132,1
DA:133,1
DA:134,1
DA:135,1
DA:136,1
DA:137,1
DA:138,1
DA:139,1
DA:140,1
DA:141,1
DA:142,1
DA:143,1
DA:144,1
DA:145,1
DA:146,1
DA:147,1
DA:148,1
DA:149,1
DA:150,1
DA:151,1
DA:152,1
DA:153,1
DA:156,1
DA:157,1
DA:159,6
DA:160,5
DA:161,5
DA:162,5
DA:163,5
DA:165,1
DA:168,1
DA:169,1
DA:170,1
DA:171,1
DA:172,1
DA:173,1
DA:174,1
DA:175,1
DA:176,1
DA:177,1
DA:178,1
DA:179,1
DA:180,1
DA:181,1
DA:184,1
DA:185,1
DA:186,1
DA:187,1
DA:188,1
DA:189,1
DA:190,1
DA:191,1
DA:192,1
DA:193,1
DA:194,1
DA:195,1
DA:196,1
DA:197,1
DA:198,1
DA:201,1
DA:202,1
DA:203,1
DA:204,1
DA:205,1
DA:206,1
DA:207,1
DA:208,1
DA:209,1
DA:210,1
DA:211,1
DA:212,1
DA:213,1
DA:214,1
DA:215,1
DA:218,1
DA:219,1
DA:220,1
DA:221,1
DA:222,1
DA:223,1
DA:224,1
DA:225,1
DA:226,1
DA:227,1
DA:228,1
DA:229,1
DA:230,1
DA:231,1
DA:232,1
DA:233,1
DA:234,1
DA:235,1
DA:236,1
DA:239,1
DA:240,1
DA:241,1
DA:242,1
DA:243,1
DA:244,1
DA:245,1
DA:246,1
DA:247,1
DA:248,1
DA:249,1
DA:250,1
DA:251,1
DA:252,1
DA:253,1
DA:254,1
DA:255,1
DA:256,1
DA:259,1
DA:260,1
DA:261,1
DA:262,1
DA:263,1
DA:264,1
DA:265,1
DA:266,1
DA:267,1
DA:268,1
DA:269,1
DA:270,1
DA:271,1
DA:272,1
DA:273,1
DA:274,1
DA:275,1
DA:276,1
DA:277,1
DA:278,1
DA:281,1
DA:282,1
DA:283,1
DA:284,1
DA:285,1
DA:286,1
DA:287,1
DA:288,1
DA:289,1
DA:290,1
DA:291,1
DA:292,1
DA:293,1
DA:294,1
DA:295,1
DA:296,1
DA:297,1
DA:298,1
DA:299,1
DA:300,1
DA:301,1
DA:302,1
DA:303,1
DA:304,1
DA:305,1
DA:306,1
DA:309,1
DA:310,1
DA:311,1
DA:312,1
DA:313,1
DA:314,1
DA:315,1
DA:316,1
DA:317,1
DA:318,1
DA:319,1
DA:320,1
DA:321,1
DA:322,1
BRF:0
BRH:0
LF:259
LH:258
end_of_record
SF:/Users/gugfug/Projects/project_apex/apex_macro/src/tmpl/mod.rs
FN:240,_RNCNvNtCsbyAjnUhfnSx_10apex_macro4tmpl22parse_single_attribute0B5_
FN:381,_RNCNvNtCsbyAjnUhfnSx_10apex_macro4tmpl29infer_component_type_from_tag0B5_
FN:102,_RNvNtCsbyAjnUhfnSx_10apex_macro4tmpl17parse_tag_content
FN:53,_RNvNtCsbyAjnUhfnSx_10apex_macro4tmpl20parse_html_structure
FN:302,_RNvNtCsbyAjnUhfnSx_10apex_macro4tmpl21generate_render_parts
FN:364,_RNvNtCsbyAjnUhfnSx_10apex_macro4tmpl21get_component_mapping
FN:229,_RNvNtCsbyAjnUhfnSx_10apex_macro4tmpl22parse_single_attribute
FN:150,_RNvNtCsbyAjnUhfnSx_10apex_macro4tmpl22parse_variable_content
FN:12,_RNvNtCsbyAjnUhfnSx_10apex_macro4tmpl23parse_tmpl_with_context
FN:378,_RNvNtCsbyAjnUhfnSx_10apex_macro4tmpl29infer_component_type_from_tag
FN:170,_RNvNtCsbyAjnUhfnSx_10apex_macro4tmpl29parse_tag_name_and_attributes
FN:257,_RNvNtCsbyAjnUhfnSx_10apex_macro4tmpl30parse_html_attributes_from_str
FN:392,_RNvNtCsbyAjnUhfnSx_10apex_macro4tmpl31generate_dynamic_component_code
FN:336,_RNvNtCsbyAjnUhfnSx_10apex_macro4tmpl34generate_production_component_code
FN:183,_RNvNtCsbyAjnUhfnSx_10apex_macro4tmpl46parse_production_component_attributes_from_str
FN:240,_RNCNvNtCsceWIjSUj9Mi_10apex_macro4tmpl22parse_single_attribute0B5_
FN:381,_RNCNvNtCsceWIjSUj9Mi_10apex_macro4tmpl29infer_component_type_from_tag0B5_
FN:102,_RNvNtCsceWIjSUj9Mi_10apex_macro4tmpl17parse_tag_content
FN:53,_RNvNtCsceWIjSUj9Mi_10apex_macro4tmpl20parse_html_structure
FN:302,_RNvNtCsceWIjSUj9Mi_10apex_macro4tmpl21generate_render_parts
FN:364,_RNvNtCsceWIjSUj9Mi_10apex_macro4tmpl21get_component_mapping
FN:229,_RNvNtCsceWIjSUj9Mi_10apex_macro4tmpl22parse_single_attribute
FN:150,_RNvNtCsceWIjSUj9Mi_10apex_macro4tmpl22parse_variable_content
FN:12,_RNvNtCsceWIjSUj9Mi_10apex_macro4tmpl23parse_tmpl_with_context
FN:378,_RNvNtCsceWIjSUj9Mi_10apex_macro4tmpl29infer_component_type_from_tag
FN:170,_RNvNtCsceWIjSUj9Mi_10apex_macro4tmpl29parse_tag_name_and_attributes
FN:257,_RNvNtCsceWIjSUj9Mi_10apex_macro4tmpl30parse_html_attributes_from_str
FN:392,_RNvNtCsceWIjSUj9Mi_10apex_macro4tmpl31generate_dynamic_component_code
FN:336,_RNvNtCsceWIjSUj9Mi_10apex_macro4tmpl34generate_production_component_code
FN:183,_RNvNtCsceWIjSUj9Mi_10apex_macro4tmpl46parse_production_component_attributes_from_str
FNDA:0,_RNCNvNtCsbyAjnUhfnSx_10apex_macro4tmpl22parse_single_attribute0B5_
FNDA:0,_RNCNvNtCsbyAjnUhfnSx_10apex_macro4tmpl29infer_component_type_from_tag0B5_
FNDA:0,_RNvNtCsbyAjnUhfnSx_10apex_macro4tmpl17parse_tag_content
FNDA:0,_RNvNtCsbyAjnUhfnSx_10apex_macro4tmpl20parse_html_structure
FNDA:0,_RNvNtCsbyAjnUhfnSx_10apex_macro4tmpl21generate_render_parts
FNDA:0,_RNvNtCsbyAjnUhfnSx_10apex_macro4tmpl21get_component_mapping
FNDA:0,_RNvNtCsbyAjnUhfnSx_10apex_macro4tmpl22parse_single_attribute
FNDA:0,_RNvNtCsbyAjnUhfnSx_10apex_macro4tmpl22parse_variable_content
FNDA:0,_RNvNtCsbyAjnUhfnSx_10apex_macro4tmpl23parse_tmpl_with_context
FNDA:0,_RNvNtCsbyAjnUhfnSx_10apex_macro4tmpl29infer_component_type_from_tag
FNDA:0,_RNvNtCsbyAjnUhfnSx_10apex_macro4tmpl29parse_tag_name_and_attributes
FNDA:0,_RNvNtCsbyAjnUhfnSx_10apex_macro4tmpl30parse_html_attributes_from_str
FNDA:0,_RNvNtCsbyAjnUhfnSx_10apex_macro4tmpl31generate_dynamic_component_code
FNDA:0,_RNvNtCsbyAjnUhfnSx_10apex_macro4tmpl34generate_production_component_code
FNDA:0,_RNvNtCsbyAjnUhfnSx_10apex_macro4tmpl46parse_production_component_attributes_from_str
FNDA:0,_RNCNvNtCsceWIjSUj9Mi_10apex_macro4tmpl22parse_single_attribute0B5_
FNDA:0,_RNCNvNtCsceWIjSUj9Mi_10apex_macro4tmpl29infer_component_type_from_tag0B5_
FNDA:12,_RNvNtCsceWIjSUj9Mi_10apex_macro4tmpl17parse_tag_content
FNDA:2,_RNvNtCsceWIjSUj9Mi_10apex_macro4tmpl20parse_html_structure
FNDA:2,_RNvNtCsceWIjSUj9Mi_10apex_macro4tmpl21generate_render_parts
FNDA:1,_RNvNtCsceWIjSUj9Mi_10apex_macro4tmpl21get_component_mapping
FNDA:5,_RNvNtCsceWIjSUj9Mi_10apex_macro4tmpl22parse_single_attribute
FNDA:0,_RNvNtCsceWIjSUj9Mi_10apex_macro4tmpl22parse_variable_content
FNDA:2,_RNvNtCsceWIjSUj9Mi_10apex_macro4tmpl23parse_tmpl_with_context
FNDA:0,_RNvNtCsceWIjSUj9Mi_10apex_macro4tmpl29infer_component_type_from_tag
FNDA:12,_RNvNtCsceWIjSUj9Mi_10apex_macro4tmpl29parse_tag_name_and_attributes
FNDA:11,_RNvNtCsceWIjSUj9Mi_10apex_macro4tmpl30parse_html_attributes_from_str
FNDA:1,_RNvNtCsceWIjSUj9Mi_10apex_macro4tmpl31generate_dynamic_component_code
FNDA:1,_RNvNtCsceWIjSUj9Mi_10apex_macro4tmpl34generate_production_component_code
FNDA:1,_RNvNtCsceWIjSUj9Mi_10apex_macro4tmpl46parse_production_component_attributes_from_str
FNF:15
FNH:11
DA:12,2
DA:13,2
DA:15,2
DA:16,2
DA:18,2
DA:19,0
DA:20,0
DA:21,0
DA:23,2
DA:24,2
DA:25,2
DA:27,2
DA:53,2
DA:54,2
DA:55,2
DA:56,2
DA:57,2
DA:59,64
DA:60,0
DA:63,12
DA:64,10
DA:65,10
DA:66,10
DA:69,12
DA:70,12
DA:71,12
DA:72,12
DA:74,0
DA:75,0
DA:76,0
DA:77,0
DA:78,0
DA:79,0
DA:80,0
DA:83,0
DA:84,0
DA:85,0
DA:87,50
DA:88,50
DA:89,50
DA:94,2
DA:95,0
DA:96,2
DA:98,2
DA:99,2
DA:102,12
DA:103,12
DA:104,12
DA:107,111
DA:108,111
DA:109,12
DA:110,12
DA:111,99
DA:112,99
DA:113,99
DA:114,0
DA:115,99
DA:116,0
DA:117,99
DA:118,99
DA:121,12
DA:122,0
DA:123,12
DA:124,12
DA:125,12
DA:126,12
DA:127,12
DA:128,12
DA:129,12
DA:130,12
DA:131,1
DA:132,1
DA:134,1
DA:135,1
DA:136,1
DA:137,1
DA:140,11
DA:141,11
DA:142,11
DA:143,11
DA:144,11
DA:145,11
DA:147,12
DA:150,0
DA:151,0
DA:154,0
DA:155,0
DA:156,0
DA:157,0
DA:158,0
DA:159,0
DA:162,0
DA:163,0
DA:164,0
DA:165,0
DA:166,0
DA:167,0
DA:170,12
DA:171,12
DA:172,12
DA:173,3
DA:174,3
DA:175,3
DA:177,9
DA:178,9
DA:180,12
DA:183,1
DA:184,1
DA:185,1
DA:186,1
DA:187,1
DA:188,1
DA:189,1
DA:190,0
DA:191,1
DA:192,1
DA:193,1
DA:194,1
DA:195,1
DA:197,2
DA:198,1
DA:200,0
DA:201,0
DA:202,0
DA:203,0
DA:204,1
DA:206,0
DA:207,0
DA:208,0
DA:209,0
DA:210,0
DA:211,0
DA:213,1
DA:214,1
DA:215,1
DA:219,1
DA:220,1
DA:221,0
DA:222,1
DA:223,0
DA:225,1
DA:226,1
DA:229,5
DA:230,5
DA:231,2
DA:232,2
DA:234,2
DA:236,1
DA:237,1
DA:239,0
DA:240,0
DA:241,0
DA:243,0
DA:247,1
DA:250,2
DA:252,3
DA:254,5
DA:257,11
DA:258,11
DA:259,11
DA:260,11
DA:261,11
DA:262,11
DA:263,9
DA:264,2
DA:265,2
DA:266,2
DA:267,2
DA:268,2
DA:270,55
DA:271,53
DA:273,2
DA:274,1
DA:275,1
DA:276,2
DA:277,51
DA:279,0
DA:280,0
DA:281,0
DA:282,0
DA:283,0
DA:284,0
DA:286,51
DA:287,51
DA:288,51
DA:292,2
DA:293,2
DA:294,1
DA:295,1
DA:296,0
DA:298,2
DA:299,11
DA:302,2
DA:303,2
DA:305,24
DA:306,22
DA:307,10
DA:308,10
DA:309,3
DA:310,7
DA:312,0
DA:313,0
DA:314,0
DA:315,0
DA:318,1
DA:320,1
DA:321,1
DA:324,11
DA:325,11
DA:326,11
DA:327,11
DA:328,11
DA:332,2
DA:333,2
DA:336,1
DA:337,1
DA:338,1
DA:339,1
DA:340,1
DA:341,1
DA:343,1
DA:344,1
DA:347,0
DA:348,0
DA:349,0
DA:352,0
DA:353,0
DA:354,0
DA:355,0
DA:356,0
DA:357,0
DA:358,0
DA:361,1
DA:364,1
DA:365,1
DA:366,1
DA:367,1
DA:368,1
DA:369,1
DA:370,1
DA:371,1
DA:372,1
DA:373,1
DA:374,1
DA:375,1
DA:378,0
DA:379,0
DA:380,0
DA:381,0
DA:382,0
DA:383,0
DA:384,0
DA:385,0
DA:387,0
DA:388,0
DA:389,0
DA:392,1
DA:393,1
DA:394,1
DA:395,1
DA:396,1
DA:399,1
DA:401,1
DA:402,0
DA:403,0
DA:404,0
DA:405,0
DA:406,0
DA:407,0
DA:408,0
DA:409,0
DA:410,0
DA:411,0
DA:412,0
DA:413,0
DA:415,0
DA:416,0
DA:417,0
DA:418,0
DA:419,0
DA:420,0
DA:425,1
DA:426,1
DA:427,1
DA:428,1
DA:429,1
DA:430,1
DA:431,1
DA:432,1
DA:433,1
BRF:0
BRH:0
LF:293
LH:191
end_of_record